LX51 LINKER/LOCATER V4.66.41.0                                                          02/08/2016  23:35:20  PAGE 1


LX51 LINKER/LOCATER V4.66.41.0, INVOKED BY:
C:\KEIL_V5\C51\BIN\LX51.EXE .\build\STARTUP.obj, .\build\main.obj, .\build\usb_desc.obj, .\build\usb_hid_desc.obj, .\bui
>> ld\gzll_mcu.obj, .\build\gzll_radio_isr.obj, .\build\gzll_timer_isr.obj, .\build\gzll.obj, .\build\hal_delay.obj, .\b
>> uild\hal_aes.obj, .\build\hal_nrf_hw.obj, .\build\hal_usb.obj, .\build\hal_usb_hid.obj, .\build\hal_nrf.obj, .\build\
>> lib_crypt.obj, .\build\lib_crypt_lu1.obj TO .\build\iHomeDongle PRINT (.\lst\iHomeDongle.map) DISABLEWARNING (15) REM
>> OVEUNUSED CLASSES (XDATA (X:0X8000-X:0X87FF), HDATA (X:0X8000-X:0X87FF), CODE (C:0X0-C:0X3FFF), CONST (C:0X0-C:0X3FFF
>> ), ECODE (C:0X0-C:0X3FFF), HCONST (C:0X0-C:0X3FFF))


CPU MODE:     8051 MODE
MEMORY MODEL: LARGE WITH FLOATING POINT ARITHMETIC


INPUT MODULES INCLUDED:
  .\build\STARTUP.obj (?C_STARTUP)
         COMMENT TYPE 0: AX51 V3.13.0.0
  .\build\main.obj (MAIN)
         COMMENT TYPE 0: C51 V9.54
  .\build\usb_desc.obj (USB_DESC)
         COMMENT TYPE 0: C51 V9.54
  .\build\usb_hid_desc.obj (USB_HID_DESC)
         COMMENT TYPE 0: C51 V9.54
  .\build\gzll_mcu.obj (GZLL_MCU)
         COMMENT TYPE 0: C51 V9.54
  .\build\gzll_radio_isr.obj (GZLL_RADIO_ISR)
         COMMENT TYPE 0: C51 V9.54
  .\build\gzll_timer_isr.obj (GZLL_TIMER_ISR)
         COMMENT TYPE 0: C51 V9.54
  .\build\gzll.obj (GZLL)
         COMMENT TYPE 0: C51 V9.54
  .\build\hal_delay.obj (HAL_DELAY)
         COMMENT TYPE 0: C51 V9.54
  .\build\hal_aes.obj (HAL_AES)
         COMMENT TYPE 0: C51 V9.54
  .\build\hal_nrf_hw.obj (HAL_NRF_HW)
         COMMENT TYPE 0: C51 V9.54
  .\build\hal_usb.obj (HAL_USB)
         COMMENT TYPE 0: C51 V9.54
  .\build\hal_usb_hid.obj (HAL_USB_HID)
         COMMENT TYPE 0: C51 V9.54
  .\build\hal_nrf.obj (HAL_NRF)
         COMMENT TYPE 0: C51 V9.54
  .\build\lib_crypt.obj (LIB_CRYPT)
         COMMENT TYPE 0: C51 V9.54
  .\build\lib_crypt_lu1.obj (LIB_CRYPT_LU1)
         COMMENT TYPE 0: C51 V9.54
  C:\KEIL_V5\C51\LIB\C51FPL.LIB (?C?FPADD)
         COMMENT TYPE 1: A51 / ASM51 Assembler
  C:\KEIL_V5\C51\LIB\C51FPL.LIB (?C?FPMUL)
         COMMENT TYPE 1: A51 / ASM51 Assembler
  C:\KEIL_V5\C51\LIB\C51FPL.LIB (?C?FPDIV)
         COMMENT TYPE 1: A51 / ASM51 Assembler
  C:\KEIL_V5\C51\LIB\C51FPL.LIB (?C?FCAST)
         COMMENT TYPE 1: A51 / ASM51 Assembler
  C:\KEIL_V5\C51\LIB\C51FPL.LIB (?C?CASTF)
         COMMENT TYPE 1: A51 / ASM51 Assembler
  C:\KEIL_V5\C51\LIB\C51FPL.LIB (?C?FPGETOPN)
         COMMENT TYPE 1: A51 / ASM51 Assembler
  C:\KEIL_V5\C51\LIB\C51L.LIB (?C_INIT)
         COMMENT TYPE 1: A51 / ASM51 Assembler
  C:\KEIL_V5\C51\LIB\C51L.LIB (?C?COPY)
         COMMENT TYPE 1: A51 / ASM51 Assembler
  C:\KEIL_V5\C51\LIB\C51L.LIB (?C?CLDPTR)
         COMMENT TYPE 1: A51 / ASM51 Assembler
  C:\KEIL_V5\C51\LIB\C51L.LIB (?C?CLDOPTR)
         COMMENT TYPE 1: A51 / ASM51 Assembler
LX51 LINKER/LOCATER V4.66.41.0                                                        02/08/2016  23:35:20  PAGE 2


  C:\KEIL_V5\C51\LIB\C51L.LIB (?C?CSTPTR)
         COMMENT TYPE 1: A51 / ASM51 Assembler
  C:\KEIL_V5\C51\LIB\C51L.LIB (?C?CSTOPTR)
         COMMENT TYPE 1: A51 / ASM51 Assembler
  C:\KEIL_V5\C51\LIB\C51L.LIB (?C?IMUL)
         COMMENT TYPE 1: A51 / ASM51 Assembler
  C:\KEIL_V5\C51\LIB\C51L.LIB (?C?UIDIV)
         COMMENT TYPE 1: A51 / ASM51 Assembler
  C:\KEIL_V5\C51\LIB\C51L.LIB (?C?IILDX)
         COMMENT TYPE 1: A51 / ASM51 Assembler
  C:\KEIL_V5\C51\LIB\C51L.LIB (?C?LNEG)
         COMMENT TYPE 1: A51 / ASM51 Assembler
  C:\KEIL_V5\C51\LIB\C51L.LIB (?C?PSTPTR)
         COMMENT TYPE 1: A51 / ASM51 Assembler
  C:\KEIL_V5\C51\LIB\C51L.LIB (?C?PLDOPTR)
         COMMENT TYPE 1: A51 / ASM51 Assembler
  C:\KEIL_V5\C51\LIB\C51L.LIB (?C?CCASE)
         COMMENT TYPE 1: A51 / ASM51 Assembler
  C:\KEIL_V5\C51\LIB\C51L.LIB (?C?ICALL)
         COMMENT TYPE 1: A51 / ASM51 Assembler
  C:\KEIL_V5\C51\LIB\C51L.LIB (?C_XBP)
         COMMENT TYPE 1: A51 / ASM51 Assembler
  C:\KEIL_V5\C51\LIB\C51L.LIB (?C?ADDXBP)
         COMMENT TYPE 1: A51 / ASM51 Assembler
  C:\KEIL_V5\C51\LIB\C51L.LIB (?C?XBPOFF)
         COMMENT TYPE 1: A51 / ASM51 Assembler
  C:\KEIL_V5\C51\LIB\C51L.LIB (?C?MEMSET)
         COMMENT TYPE 1: A51 / ASM51 Assembler
  C:\KEIL_V5\C51\LIB\C51L.LIB (?C?PLDIDATA)
         COMMENT TYPE 1: A51 / ASM51 Assembler
  C:\KEIL_V5\C51\LIB\C51L.LIB (?C?PSTIDATA)
         COMMENT TYPE 1: A51 / ASM51 Assembler
  C:\KEIL_V5\C51\LIB\C51L.LIB (?C?PLDXDATA)
         COMMENT TYPE 1: A51 / ASM51 Assembler
  C:\KEIL_V5\C51\LIB\C51L.LIB (?C?PSTXDATA)
         COMMENT TYPE 1: A51 / ASM51 Assembler
  C:\KEIL_V5\C51\LIB\C51L.LIB (?C?PLDPDATA)
         COMMENT TYPE 1: A51 / ASM51 Assembler
  C:\KEIL_V5\C51\LIB\C51L.LIB (?C?PSTPDATA)
         COMMENT TYPE 1: A51 / ASM51 Assembler
  C:\KEIL_V5\C51\LIB\C51L.LIB (?C?PLDCODE)
         COMMENT TYPE 1: A51 / ASM51 Assembler


ACTIVE MEMORY CLASSES OF MODULE:  .\build\iHomeDongle (?C_STARTUP)

BASE        START       END         USED      MEMORY CLASS
==========================================================
X:000000H   X:008000H   X:0087FFH   0002D7H   XDATA
X:000000H   X:008000H   X:0087FFH             HDATA
C:000000H   C:000000H   C:003FFFH   002501H   CODE
C:000000H   C:000000H   C:003FFFH   0000C1H   CONST
C:000000H   C:000000H   C:003FFFH             ECODE
B00:0000H   C:000000H   C:003FFFH             HCONST
I:000000H   I:000000H   I:0000FFH   000001H   IDATA
I:000000H   I:000000H   I:00007FH   00000CH   DATA


MEMORY MAP OF MODULE:  .\build\iHomeDongle (?C_STARTUP)


START     STOP      LENGTH    ALIGN  RELOC    MEMORY CLASS   SEGMENT NAME
=========================================================================

* * * * * * * * * * *   D A T A   M E M O R Y   * * * * * * * * * * * * *
LX51 LINKER/LOCATER V4.66.41.0                                                        02/08/2016  23:35:20  PAGE 3


000000H   000007H   000008H   ---    AT..     DATA           "REG BANK 0"
000008H   000009H   000002H   BYTE   UNIT     DATA           ?C?LIB_DATA
00000AH   00001FH   000016H   ---    ---      **GAP**
000020H   000021H   000002H   BYTE   BITADDR  DATA           ?BA?GZLL
000022H   000022H   000001H   BYTE   UNIT     IDATA          ?STACK

* * * * * * * * * * *   C O D E   M E M O R Y   * * * * * * * * * * * * *
000000H   000002H   000003H   ---    OFFS..   CODE           ?CO?STARTUP?3
000003H   00000AH   000008H   BYTE   UNIT     CODE           ?CO?MAIN
00000BH   000011H   000007H   BYTE   UNIT     CODE           ?PR?_?SUSPEND_CB?MAIN
000012H   000017H   000006H   BYTE   UNIT     CODE           ?PR?_?RESUME_CB?MAIN
000018H   00001DH   000006H   BYTE   UNIT     CODE           ?PR?_?RESET_CB?MAIN
00001EH   000028H   00000BH   BYTE   UNIT     CODE           ?PR?GZLL_INTERUPTS_ENABLE_RFCK_DISABLE?GZLL
000029H   00002AH   000002H   ---    ---      **GAP**
00002BH   00002DH   000003H   BYTE   OFFS..   CODE           ?GZLL_TIMER_ISR?0002B
00002EH   000046H   000019H   BYTE   UNIT     CODE           ?PR?_?EP_1_IN_CB?MAIN
000047H   00004AH   000004H   ---    ---      **GAP**
00004BH   00004DH   000003H   BYTE   OFFS..   CODE           ?GZLL_RADIO_ISR?0004B
00004EH   000057H   00000AH   BYTE   UNIT     CODE           ?PR?HAL_NRF_GET_ADDRESS_WIDTH?HAL_NRF
000058H   00005AH   000003H   ---    ---      **GAP**
00005BH   00005DH   000003H   BYTE   OFFS..   CODE           ?HAL_USB?0005B
00005EH   000062H   000005H   ---    ---      **GAP**
000063H   000065H   000003H   BYTE   OFFS..   CODE           ?HAL_USB?00063
000066H   000707H   0006A2H   BYTE   UNIT     CODE           ?C?LIB_CODE
000708H   000799H   000092H   BYTE   UNIT     CODE           ?C_C51STARTUP
00079AH   0007E4H   00004BH   BYTE   UNIT     CODE           ?C_INITSEG
0007E5H   000858H   000074H   BYTE   UNIT     CONST          ?CO?USB_DESC
000859H   000880H   000028H   BYTE   UNIT     CONST          ?CO?USB_HID_DESC
000881H   0008A5H   000025H   BYTE   UNIT     CONST          ?CO?GZLL
0008A6H   000932H   00008DH   BYTE   UNIT     CODE           ?PR?_?DEVICE_REQ_CB?MAIN
000933H   000C8CH   00035AH   BYTE   UNIT     CODE           ?PR?_?HAL_USB_HID_DEVICE_REQ_PROC?HAL_USB_HID
000C8DH   000D03H   000077H   BYTE   UNIT     CODE           ?PR?_USB_SEND_DATA?MAIN
000D04H   000D96H   000093H   BYTE   UNIT     CODE           ?PR?_HAL_USB_SEND_DATA?HAL_USB
000D97H   000DA6H   000010H   BYTE   UNIT     CODE           ?PR?_USB_SEND_DATA_SYNC?MAIN
000DA7H   000DD1H   00002BH   BYTE   UNIT     CODE           ?PR?MAIN?MAIN
000DD2H   000F21H   000150H   BYTE   UNIT     CODE           ?PR?GZLL_INIT?GZLL
000F22H   000F69H   000048H   BYTE   UNIT     CODE           ?PR?USB_INIT?MAIN
000F6AH   000FC1H   000058H   BYTE   UNIT     CODE           ?PR?_HAL_NRF_SET_ADDRESS?HAL_NRF
000FC2H   000FCEH   00000DH   BYTE   UNIT     CODE           ?PR?MCU_INIT?GZLL_MCU
000FCFH   000FD7H   000009H   BYTE   UNIT     CODE           ?PR?HAL_NRF_FLUSH_RX?HAL_NRF
000FD8H   000FE1H   00000AH   BYTE   UNIT     CODE           ?PR?_HAL_NRF_RW?HAL_NRF_HW
000FE2H   000FEAH   000009H   BYTE   UNIT     CODE           ?PR?HAL_NRF_FLUSH_TX?HAL_NRF
000FEBH   000FF6H   00000CH   BYTE   UNIT     CODE           ?PR?HAL_NRF_GET_CLEAR_IRQ_FLAGS?HAL_NRF
000FF7H   00102DH   000037H   BYTE   UNIT     CODE           ?PR?_GZLL_SET_TIMER_PERIOD?GZLL_MCU
00102EH   001067H   00003AH   BYTE   UNIT     CODE           ?PR?NRF_ISR?GZLL_RADIO_ISR
001068H   001234H   0001CDH   BYTE   UNIT     CODE           ?PR?GZLL_RADIO_ISR_FUNCTION?GZLL
001235H   00124DH   000019H   BYTE   UNIT     CODE           ?PR?_DELAY_US?HAL_DELAY
00124EH   001273H   000026H   BYTE   UNIT     CODE           ?PR?_DELAY_MS?HAL_DELAY
001274H   00128BH   000018H   BYTE   UNIT     CODE           ?PR?GZLL_CHM_HOLD_RX_CHANNEL?GZLL
00128CH   0012BCH   000031H   BYTE   UNIT     CODE           ?PR?GZLL_SET_SYSTEM_IDLE?GZLL
0012BDH   0012D8H   00001CH   BYTE   UNIT     CODE           ?PR?_GZLL_SET_RADIO_POWER_ON?GZLL
0012D9H   001406H   00012EH   BYTE   UNIT     CODE           ?PR?GZLL_TIMER_ISR_FUNCTION?GZLL
001407H   001421H   00001BH   BYTE   UNIT     CODE           ?PR?GZLL_CHM_GET_CURRENT_RX_CHANNEL?GZLL
001422H   00144DH   00002CH   BYTE   UNIT     CODE           ?PR?_HAL_NRF_SET_POWER_MODE?HAL_NRF
00144EH   0014DCH   00008FH   BYTE   UNIT     CODE           ?PR?GZLL_CHM_GET_RX_CE_OFFSET?GZLL
0014DDH   00156EH   000092H   BYTE   UNIT     CODE           ?PR?_GZLL_START_NEW_TX?GZLL
00156FH   001582H   000014H   BYTE   UNIT     CODE           ?PR?_HAL_NRF_SET_RF_CHANNEL?HAL_NRF
001583H   00159FH   00001DH   BYTE   UNIT     CODE           ?PR?GZLL_SET_RADIO_AUTO_RETRIES?GZLL
0015A0H   0015BFH   000020H   BYTE   UNIT     CODE           ?PR?_HAL_NRF_SET_AUTO_RETR?HAL_NRF
0015C0H   0015E3H   000024H   BYTE   UNIT     CODE           ?PR?_HAL_NRF_WRITE_REG?HAL_NRF
0015E4H   001605H   000022H   BYTE   UNIT     CODE           ?PR?HAL_NRF_CLEAR_IRQ_FLAGS_GET_STATUS?HAL_NRF
001606H   001624H   00001FH   BYTE   UNIT     CODE           ?PR?_HAL_NRF_READ_REG?HAL_NRF
001625H   001678H   000054H   BYTE   UNIT     CODE           ?PR?_HAL_NRF_CLOSE_PIPE?HAL_NRF
001679H   001702H   00008AH   BYTE   UNIT     CODE           ?PR?_HAL_NRF_OPEN_PIPE?HAL_NRF
001703H   00176FH   00006DH   BYTE   UNIT     CODE           ?PR?GZLL_RX_START?GZLL
LX51 LINKER/LOCATER V4.66.41.0                                                        02/08/2016  23:35:20  PAGE 4


001770H   00178FH   000020H   BYTE   UNIT     CODE           ?PR?GZLL_GOTO_IDLE?GZLL
001790H   0017BBH   00002CH   BYTE   UNIT     CODE           ?PR?_HAL_NRF_SET_OPERATION_MODE?HAL_NRF
0017BCH   0017C4H   000009H   BYTE   UNIT     CODE           ?PR?HAL_NRF_GET_TRANSMIT_ATTEMPTS?HAL_NRF
0017C5H   0017CDH   000009H   BYTE   UNIT     CODE           ?PR?HAL_NRF_GET_CARRIER_DETECT?HAL_NRF
0017CEH   0017D7H   00000AH   BYTE   UNIT     CODE           ?PR?HAL_NRF_TX_FIFO_EMPTY?HAL_NRF
0017D8H   0017E9H   000012H   BYTE   UNIT     CODE           ?PR?GZLL_RELOAD_TRIES_PR_CHANNEL_COUNTER?GZLL
0017EAH   0017F6H   00000DH   BYTE   UNIT     CODE           ?PR?_HAL_NRF_SETUP_DYNAMIC_PAYLOAD?HAL_NRF
0017F7H   001809H   000013H   BYTE   UNIT     CODE           ?PR?GZLL_INTERUPTS_DISABLE_RFCK_ENABLE?GZLL
00180AH   001854H   00004BH   BYTE   UNIT     CODE           ?PR?T2_ISR?GZLL_TIMER_ISR
001855H   00188DH   000039H   BYTE   UNIT     CODE           ?PR?_GZLL_LFSR_GET?GZLL
00188EH   0018ACH   00001FH   BYTE   UNIT     CODE           ?PR?_GZLL_DELAY_50US?GZLL
0018ADH   001918H   00006CH   BYTE   UNIT     CODE           ?PR?GZLL_CHM_EXECUTE?GZLL
001919H   001928H   000010H   BYTE   UNIT     CODE           ?PR?GZLL_CHM_RESET_RX_CHANNEL_INDEX?GZLL
001929H   00194FH   000027H   BYTE   UNIT     CODE           ?PR?GZLL_CHM_GET_NEXT_RX_CHANNEL?GZLL
001950H   001988H   000039H   BYTE   UNIT     CODE           ?PR?GZLL_CHM_GET_TX_CE_OFFSET?GZLL
001989H   001AAFH   000127H   BYTE   UNIT     CODE           ?PR?_HAL_USB_INIT?HAL_USB
001AB0H   001AF7H   000048H   BYTE   UNIT     CODE           ?PR?_HAL_USB_ENDPOINT_STALL?HAL_USB
001AF8H   001C56H   00015FH   BYTE   UNIT     CODE           ?PR?ISR_SUDAV?HAL_USB
001C57H   001CDCH   000086H   BYTE   UNIT     CODE           ?PR?USB_PROCESS_DEV_REQ_CB_RESPONSE?HAL_USB
001CDDH   001DCDH   0000F1H   BYTE   UNIT     CODE           ?PR?USB_PROCESS_GET_DESCRIPTOR?HAL_USB
001DCEH   001DF1H   000024H   BYTE   UNIT     CODE           ?PR?_PACKETIZE?HAL_USB
001DF2H   001E7BH   00008AH   BYTE   UNIT     CODE           ?PR?PACKETIZER_ISR_EP0_IN?HAL_USB
001E7CH   001F51H   0000D6H   BYTE   UNIT     CODE           ?PR?USB_PROCESS_GET_STATUS?HAL_USB
001F52H   002196H   000245H   BYTE   UNIT     CODE           ?PR?USB_ISR?HAL_USB
002197H   0021C7H   000031H   BYTE   UNIT     CODE           ?PR?_USB_PROCESS_EP_RESPONSE?HAL_USB
0021C8H   0022B4H   0000EDH   BYTE   UNIT     CODE           ?PR?_HAL_USB_ENDPOINT_CONFIG?HAL_USB
0022B5H   0022F2H   00003EH   BYTE   UNIT     CODE           ?PR?ISR_SUSPEND?HAL_USB
0022F3H   00231EH   00002CH   BYTE   UNIT     CODE           ?PR?ISR_USBRESET?HAL_USB
00231FH   0023ABH   00008DH   BYTE   UNIT     CODE           ?PR?USB_WU_ISR?HAL_USB
0023ACH   0023F3H   000048H   BYTE   UNIT     CODE           ?PR?_HAL_NRF_SET_CRC_MODE?HAL_NRF
0023F4H   00240AH   000017H   BYTE   UNIT     CODE           ?PR?_HAL_NRF_SET_ADDRESS_WIDTH?HAL_NRF
00240BH   00242EH   000024H   BYTE   UNIT     CODE           ?PR?_HAL_NRF_SET_OUTPUT_POWER?HAL_NRF
00242FH   00246AH   00003CH   BYTE   UNIT     CODE           ?PR?_HAL_NRF_SET_DATARATE?HAL_NRF
00246BH   00249AH   000030H   BYTE   UNIT     CODE           ?PR?_HAL_NRF_ENABLE_DYNAMIC_PAYLOAD?HAL_NRF
00249BH   0024C8H   00002EH   BYTE   UNIT     CODE           ?PR?_HAL_NRF_ENABLE_ACK_PAYLOAD?HAL_NRF
0024C9H   0025CFH   000107H   BYTE   UNIT     CODE           ?PR?_HAL_NRF_WRITE_MULTIBYTE_REG?HAL_NRF

* * * * * * * * * * *  X D A T A   M E M O R Y  * * * * * * * * * * * * *
008000H   00804DH   00004EH   BYTE   UNIT     XDATA          ?XD?GZLL
00804EH   008096H   000049H   BYTE   UNIT     XDATA          _XDATA_GROUP_
008097H   0080DDH   000047H   BYTE   UNIT     XDATA          ?XD?HAL_USB
0080DEH   0080F0H   000013H   BYTE   UNIT     XDATA          ?XD?MAIN
0080F1H   008100H   000010H   BYTE   UNIT     XDATA          ?XD?LIB_CRYPT
008101H   008109H   000009H   BYTE   UNIT     XDATA          ?XD?HAL_USB_HID
00810AH   00810EH   000005H   BYTE   UNIT     XDATA          ?XD?LIB_CRYPT_LU1
00810FH   008110H   000002H   BYTE   UNIT     XDATA          ?XD?GZLL_TIMER_ISR
008111H   00C43FH   00432FH   ---    ---      **GAP**
00C440H   00C45FH   000020H   BYTE   OFFS..   XDATA          ?XD?HAL_USB?42
00C460H   00C47FH   000020H   ---    ---      **GAP**
00C480H   00C49FH   000020H   BYTE   OFFS..   XDATA          ?XD?HAL_USB?38
00C4A0H   00C4BFH   000020H   ---    ---      **GAP**
00C4C0H   00C4DFH   000020H   BYTE   OFFS..   XDATA          ?XD?HAL_USB?39
00C4E0H   00C4FFH   000020H   ---    ---      **GAP**
00C500H   00C51FH   000020H   BYTE   OFFS..   XDATA          ?XD?HAL_USB?36
00C520H   00C53FH   000020H   ---    ---      **GAP**
00C540H   00C55FH   000020H   BYTE   OFFS..   XDATA          ?XD?HAL_USB?37
00C560H   00C57FH   000020H   ---    ---      **GAP**
00C580H   00C59FH   000020H   BYTE   OFFS..   XDATA          ?XD?HAL_USB?34
00C5A0H   00C5BFH   000020H   ---    ---      **GAP**
00C5C0H   00C5DFH   000020H   BYTE   OFFS..   XDATA          ?XD?HAL_USB?35
00C5E0H   00C5FFH   000020H   ---    ---      **GAP**
00C600H   00C61FH   000020H   BYTE   OFFS..   XDATA          ?XD?HAL_USB?32
00C620H   00C63FH   000020H   ---    ---      **GAP**
00C640H   00C65FH   000020H   BYTE   OFFS..   XDATA          ?XD?HAL_USB?33
00C660H   00C67FH   000020H   ---    ---      **GAP**
LX51 LINKER/LOCATER V4.66.41.0                                                        02/08/2016  23:35:20  PAGE 5


00C680H   00C69FH   000020H   BYTE   OFFS..   XDATA          ?XD?HAL_USB?30
00C6A0H   00C6BFH   000020H   ---    ---      **GAP**
00C6C0H   00C6DFH   000020H   BYTE   OFFS..   XDATA          ?XD?HAL_USB?31
00C6E0H   00C6FFH   000020H   ---    ---      **GAP**
00C700H   00C71FH   000020H   BYTE   OFFS..   XDATA          ?XD?HAL_USB?29
00C720H   00C75FH   000040H   ---    ---      **GAP**
00C760H   00C760H   000001H   BYTE   OFFS..   XDATA          ?XD?HAL_USB?24
00C761H   00C767H   000007H   ---    ---      **GAP**
00C768H   00C768H   000001H   BYTE   OFFS..   XDATA          ?XD?HAL_USB?22
00C769H   00C76FH   000007H   ---    ---      **GAP**
00C770H   00C770H   000001H   BYTE   OFFS..   XDATA          ?XD?HAL_USB?27
00C771H   00C771H   000001H   BYTE   OFFS..   XDATA          ?XD?HAL_USB?28
00C772H   00C780H   00000FH   ---    ---      **GAP**
00C781H   00C781H   000001H   BYTE   OFFS..   XDATA          ?XD?HAL_USB?9
00C782H   00C782H   000001H   BYTE   OFFS..   XDATA          ?XD?HAL_USB?11
00C783H   00C783H   000001H   BYTE   OFFS..   XDATA          ?XD?HAL_USB?13
00C784H   00C784H   000001H   BYTE   OFFS..   XDATA          ?XD?HAL_USB?14
00C785H   00C785H   000001H   BYTE   OFFS..   XDATA          ?XD?HAL_USB?15
00C786H   00C787H   000002H   ---    ---      **GAP**
00C788H   00C788H   000001H   BYTE   OFFS..   XDATA          ?XD?HAL_USB?26
00C789H   00C789H   000001H   BYTE   OFFS..   XDATA          ?XD?HAL_USB?5
00C78AH   00C78AH   000001H   BYTE   OFFS..   XDATA          ?XD?HAL_USB?7
00C78BH   00C78BH   000001H   BYTE   OFFS..   XDATA          ?XD?HAL_USB?8
00C78CH   00C78CH   000001H   BYTE   OFFS..   XDATA          ?XD?HAL_USB?10
00C78DH   00C78DH   000001H   BYTE   OFFS..   XDATA          ?XD?HAL_USB?12
00C78EH   00C79FH   000012H   ---    ---      **GAP**
00C7A0H   00C7A0H   000001H   BYTE   OFFS..   XDATA          ?XD?HAL_USB?17
00C7A1H   00C7A1H   000001H   ---    ---      **GAP**
00C7A2H   00C7A2H   000001H   BYTE   OFFS..   XDATA          ?XD?HAL_USB?19
00C7A3H   00C7A7H   000005H   ---    ---      **GAP**
00C7A8H   00C7A8H   000001H   BYTE   OFFS..   XDATA          ?XD?HAL_USB?21
00C7A9H   00C7A9H   000001H   BYTE   OFFS..   XDATA          ?XD?HAL_USB?1
00C7AAH   00C7AAH   000001H   BYTE   OFFS..   XDATA          ?XD?HAL_USB?3
00C7ABH   00C7ABH   000001H   BYTE   OFFS..   XDATA          ?XD?HAL_USB?18
00C7ACH   00C7ACH   000001H   BYTE   OFFS..   XDATA          ?XD?HAL_USB?71
00C7ADH   00C7ADH   000001H   BYTE   OFFS..   XDATA          ?XD?HAL_USB?72
00C7AEH   00C7AEH   000001H   BYTE   OFFS..   XDATA          ?XD?HAL_USB?4
00C7AFH   00C7AFH   000001H   BYTE   OFFS..   XDATA          ?XD?HAL_USB?2
00C7B0H   00C7B3H   000004H   ---    ---      **GAP**
00C7B4H   00C7B4H   000001H   BYTE   OFFS..   XDATA          ?XD?HAL_USB?56
00C7B5H   00C7B5H   000001H   BYTE   OFFS..   XDATA          ?XD?HAL_USB?41
00C7B6H   00C7B6H   000001H   BYTE   OFFS..   XDATA          ?XD?HAL_USB?57
00C7B7H   00C7B7H   000001H   BYTE   OFFS..   XDATA          ?XD?HAL_USB?43
00C7B8H   00C7B8H   000001H   BYTE   OFFS..   XDATA          ?XD?HAL_USB?58
00C7B9H   00C7B9H   000001H   BYTE   OFFS..   XDATA          ?XD?HAL_USB?46
00C7BAH   00C7BAH   000001H   BYTE   OFFS..   XDATA          ?XD?HAL_USB?60
00C7BBH   00C7BBH   000001H   BYTE   OFFS..   XDATA          ?XD?HAL_USB?48
00C7BCH   00C7BCH   000001H   BYTE   OFFS..   XDATA          ?XD?HAL_USB?62
00C7BDH   00C7BDH   000001H   BYTE   OFFS..   XDATA          ?XD?HAL_USB?50
00C7BEH   00C7BEH   000001H   BYTE   OFFS..   XDATA          ?XD?HAL_USB?64
00C7BFH   00C7BFH   000001H   BYTE   OFFS..   XDATA          ?XD?HAL_USB?53
00C7C0H   00C7C4H   000005H   ---    ---      **GAP**
00C7C5H   00C7C5H   000001H   BYTE   OFFS..   XDATA          ?XD?HAL_USB?45
00C7C6H   00C7C6H   000001H   BYTE   OFFS..   XDATA          ?XD?HAL_USB?59
00C7C7H   00C7C7H   000001H   BYTE   OFFS..   XDATA          ?XD?HAL_USB?47
00C7C8H   00C7C8H   000001H   BYTE   OFFS..   XDATA          ?XD?HAL_USB?61
00C7C9H   00C7C9H   000001H   BYTE   OFFS..   XDATA          ?XD?HAL_USB?49
00C7CAH   00C7CAH   000001H   BYTE   OFFS..   XDATA          ?XD?HAL_USB?63
00C7CBH   00C7CBH   000001H   BYTE   OFFS..   XDATA          ?XD?HAL_USB?52
00C7CCH   00C7CCH   000001H   BYTE   OFFS..   XDATA          ?XD?HAL_USB?65
00C7CDH   00C7CDH   000001H   BYTE   OFFS..   XDATA          ?XD?HAL_USB?54
00C7CEH   00C7CEH   000001H   BYTE   OFFS..   XDATA          ?XD?HAL_USB?66
00C7CFH   00C7CFH   000001H   BYTE   OFFS..   XDATA          ?XD?HAL_USB?55
00C7D0H   00C7D5H   000006H   ---    ---      **GAP**
00C7D6H   00C7D6H   000001H   BYTE   OFFS..   XDATA          ?XD?HAL_USB?20
LX51 LINKER/LOCATER V4.66.41.0                                                        02/08/2016  23:35:20  PAGE 6


00C7D7H   00C7D7H   000001H   BYTE   OFFS..   XDATA          ?XD?HAL_USB?16
00C7D8H   00C7D8H   000001H   BYTE   OFFS..   XDATA          ?XD?HAL_USB?0
00C7D9H   00C7D9H   000001H   BYTE   OFFS..   XDATA          ?XD?HAL_USB?74
00C7DAH   00C7DAH   000001H   ---    ---      **GAP**
00C7DBH   00C7DBH   000001H   BYTE   OFFS..   XDATA          ?XD?HAL_USB?69
00C7DCH   00C7DCH   000001H   ---    ---      **GAP**
00C7DDH   00C7DDH   000001H   BYTE   OFFS..   XDATA          ?XD?HAL_USB?73
00C7DEH   00C7DEH   000001H   BYTE   OFFS..   XDATA          ?XD?HAL_USB?40
00C7DFH   00C7DFH   000001H   BYTE   OFFS..   XDATA          ?XD?HAL_USB?44
00C7E0H   00C7E0H   000001H   BYTE   OFFS..   XDATA          ?XD?HAL_USB?67
00C7E1H   00C7E1H   000001H   BYTE   OFFS..   XDATA          ?XD?HAL_USB?68
00C7E2H   00C7E2H   000001H   BYTE   OFFS..   XDATA          ?XD?HAL_USB?51
00C7E3H   00C7E3H   000001H   BYTE   OFFS..   XDATA          ?XD?HAL_USB?6
00C7E4H   00C7E7H   000004H   ---    ---      **GAP**
00C7E8H   00C7EFH   000008H   BYTE   OFFS..   XDATA          ?XD?HAL_USB?70
00C7F0H   00C7F0H   000001H   BYTE   OFFS..   XDATA          ?XD?HAL_USB?25
00C7F1H   00C7F7H   000007H   ---    ---      **GAP**
00C7F8H   00C7F8H   000001H   BYTE   OFFS..   XDATA          ?XD?HAL_USB?23

* * * * * * * * *   R E M O V E D     S E G M E N T S   * * * * * * * *
   *DEL*:           000016H   BYTE   UNIT     CODE           ?PR?_?EP_1_OUT_CB?MAIN
   *DEL*:           000012H   BYTE   UNIT     CODE           ?PR?_USB_SEND_DATA_ASYNC?MAIN
   *DEL*:           000005H   BYTE   UNIT     XDATA          ?XD?_USB_SEND_DATA_ASYNC?MAIN
   *DEL*:           000058H   BYTE   UNIT     CODE           ?PR?_GZLL_SET_PARAM?GZLL
   *DEL*:           00002DH   BYTE   UNIT     CODE           ?PR?_GZLL_GET_PARAM_MAX?GZLL
   *DEL*:           000021H   BYTE   UNIT     XDATA          ?XD?_GZLL_GET_PARAM_MAX?GZLL
   *DEL*:           000027H   BYTE   UNIT     CODE           ?PR?_GZLL_GET_PARAM?GZLL
   *DEL*:           000006H   BYTE   UNIT     CODE           ?PR?GZLL_GET_CHANNEL_TAB_SIZE?GZLL
   *DEL*:           00002AH   BYTE   UNIT     CODE           ?PR?_GZLL_GET_CHANNELS?GZLL
   *DEL*:           000003H   BYTE   UNIT     XDATA          ?XD?_GZLL_GET_CHANNELS?GZLL
   *DEL*:           00002FH   BYTE   UNIT     CODE           ?PR?_GZLL_SET_CHANNELS?GZLL
   *DEL*:           000045H   BYTE   UNIT     CODE           ?PR?_GZLL_SET_ADDRESS?GZLL
   *DEL*:           000004H   BYTE   UNIT     XDATA          ?XD?_GZLL_SET_ADDRESS?GZLL
   *DEL*:           00000DH   BYTE   UNIT     CODE           ?PR?_GZLL_GET_ADDRESS?GZLL
   *DEL*:           000045H   BYTE   UNIT     CODE           ?PR?_GZLL_ACK_PAYLOAD_WRITE?GZLL
   *DEL*:           000005H   BYTE   UNIT     XDATA          ?XD?_GZLL_ACK_PAYLOAD_WRITE?GZLL
   *DEL*:           000194H   BYTE   UNIT     CODE           ?PR?_GZLL_TX_DATA?GZLL
   *DEL*:           00000DH   BYTE   UNIT     XDATA          ?XD?_GZLL_TX_DATA?GZLL
   *DEL*:           000029H   BYTE   UNIT     CODE           ?PR?GZLL_DEV_MODE2_RX_CHANNEL_MATCH?GZLL
   *DEL*:           000006H   BYTE   UNIT     CODE           ?PR?GZLL_TX_SUCCESS?GZLL
   *DEL*:           000009H   BYTE   UNIT     CODE           ?PR?GZLL_GET_TX_ATTEMPTS?GZLL
   *DEL*:           000009H   BYTE   UNIT     CODE           ?PR?GZLL_GET_TX_CHANNEL_SWITCHES?GZLL
   *DEL*:           000009H   BYTE   UNIT     CODE           ?PR?GZLL_TX_FIFO_FLUSH?GZLL
   *DEL*:           000006H   BYTE   UNIT     CODE           ?PR?GZLL_GET_STATE?GZLL
   *DEL*:           000006H   BYTE   UNIT     CODE           ?PR?GZLL_RADIO_ACTIVE?GZLL
   *DEL*:           00002DH   BYTE   UNIT     CODE           ?PR?GZLL_GET_RX_DATA_READY_PIPE_NUMBER?GZLL
   *DEL*:           000021H   BYTE   UNIT     CODE           ?PR?_GZLL_RX_DATA_READY?GZLL
   *DEL*:           000001H   BYTE   UNIT     XDATA          ?XD?_GZLL_RX_DATA_READY?GZLL
   *DEL*:           0000A1H   BYTE   UNIT     CODE           ?PR?_GZLL_RX_FIFO_READ?GZLL
   *DEL*:           00000BH   BYTE   UNIT     XDATA          ?XD?_GZLL_RX_FIFO_READ?GZLL
   *DEL*:           000006H   BYTE   UNIT     CODE           ?PR?GZLL_RX_POWER_HIGH?GZLL
   *DEL*:           000010H   BYTE   UNIT     CODE           ?PR?GZLL_RX_FIFO_FLUSH?GZLL
   *DEL*:           000071H   BYTE   UNIT     CODE           ?PR?_HAL_AES_SETUP?HAL_AES
   *DEL*:           000008H   BYTE   UNIT     XDATA          ?XD?_HAL_AES_SETUP?HAL_AES
   *DEL*:           00003EH   BYTE   UNIT     CODE           ?PR?_HAL_AES_CRYPT?HAL_AES
   *DEL*:           000006H   BYTE   UNIT     XDATA          ?XD?_HAL_AES_CRYPT?HAL_AES
   *DEL*:           000175H   BYTE   UNIT     CODE           ?PR?_HAL_AES_GET_DEC_KEY?HAL_AES
   *DEL*:           000007H   BYTE   UNIT     XDATA          ?XD?_HAL_AES_GET_DEC_KEY?HAL_AES
   *DEL*:           00000EH   BYTE   UNIT     CODE           ?PR?_AES_SET_MODE?HAL_AES
   *DEL*:           00000CH   BYTE   UNIT     CODE           ?PR?_AES_SELECT_E_D?HAL_AES
   *DEL*:           000004H   BYTE   UNIT     CODE           ?PR?AES_GO?HAL_AES
   *DEL*:           000006H   BYTE   UNIT     CODE           ?PR?AES_BUSY?HAL_AES
   *DEL*:           000044H   BYTE   UNIT     CODE           ?PR?_AES_DATA_WRITE_BUF?HAL_AES
   *DEL*:           000005H   BYTE   UNIT     XDATA          ?XD?_AES_DATA_WRITE_BUF?HAL_AES
   *DEL*:           00003DH   BYTE   UNIT     CODE           ?PR?_AES_DATA_READ_BUF?HAL_AES
LX51 LINKER/LOCATER V4.66.41.0                                                        02/08/2016  23:35:20  PAGE 7


   *DEL*:           000005H   BYTE   UNIT     XDATA          ?XD?_AES_DATA_READ_BUF?HAL_AES
   *DEL*:           000044H   BYTE   UNIT     CODE           ?PR?_AES_KEYIN_WRITE_BUF?HAL_AES
   *DEL*:           000005H   BYTE   UNIT     XDATA          ?XD?_AES_KEYIN_WRITE_BUF?HAL_AES
   *DEL*:           00003DH   BYTE   UNIT     CODE           ?PR?_AES_INITVECT_WRITE_BUF?HAL_AES
   *DEL*:           000005H   BYTE   UNIT     XDATA          ?XD?_AES_INITVECT_WRITE_BUF?HAL_AES
   *DEL*:           000100H   BYTE   UNIT     CONST          ?CO?HAL_AES
   *DEL*:           000006H   BYTE   UNIT     CODE           ?PR?HAL_USB_GET_ADDRESS?HAL_USB
   *DEL*:           000015H   BYTE   UNIT     CODE           ?PR?HAL_USB_WAKEUP?HAL_USB
   *DEL*:           000003H   BYTE   UNIT     CODE           ?PR?HAL_USB_RESET?HAL_USB
   *DEL*:           000011H   BYTE   UNIT     CODE           ?PR?HAL_USB_GET_STATE?HAL_USB
   *DEL*:           000008H   BYTE   UNIT     CODE           ?PR?HAL_USB_BUS_DISCONNECT?HAL_USB
   *DEL*:           000008H   BYTE   UNIT     CODE           ?PR?HAL_USB_BUS_CONNECT?HAL_USB
   *DEL*:           000004H   BYTE   UNIT     CODE           ?PR?HAL_USB_SLEEP?HAL_USB
   *DEL*:           00007DH   BYTE   UNIT     CODE           ?PR?_HAL_NRF_SET_IRQ_MODE?HAL_NRF
   *DEL*:           000003H   BYTE   UNIT     XDATA          ?XD?_HAL_NRF_SET_IRQ_MODE?HAL_NRF
   *DEL*:           000011H   BYTE   UNIT     CODE           ?PR?_HAL_NRF_CLEAR_IRQ_FLAG?HAL_NRF
   *DEL*:           000008H   BYTE   UNIT     CODE           ?PR?HAL_NRF_GET_IRQ_FLAGS?HAL_NRF
   *DEL*:           000048H   BYTE   UNIT     CODE           ?PR?_HAL_NRF_GET_ADDRESS?HAL_NRF
   *DEL*:           000004H   BYTE   UNIT     XDATA          ?XD?_HAL_NRF_GET_ADDRESS?HAL_NRF
   *DEL*:           000007H   BYTE   UNIT     CODE           ?PR?_HAL_NRF_SET_RX_PAYLOAD_WIDTH?HAL_NRF
   *DEL*:           0000C2H   BYTE   UNIT     CODE           ?PR?_HAL_NRF_GET_PIPE_STATUS?HAL_NRF
   *DEL*:           000005H   BYTE   UNIT     XDATA          ?XD?_HAL_NRF_GET_PIPE_STATUS?HAL_NRF
   *DEL*:           000005H   BYTE   UNIT     CODE           ?PR?HAL_NRF_GET_AUTO_RETR_STATUS?HAL_NRF
   *DEL*:           000016H   BYTE   UNIT     CODE           ?PR?HAL_NRF_GET_PACKET_LOST_CTR?HAL_NRF
   *DEL*:           00003FH   BYTE   UNIT     CODE           ?PR?_HAL_NRF_GET_RX_PAYLOAD_WIDTH?HAL_NRF
   *DEL*:           000001H   BYTE   UNIT     XDATA          ?XD?_HAL_NRF_GET_RX_PAYLOAD_WIDTH?HAL_NRF
   *DEL*:           00000AH   BYTE   UNIT     CODE           ?PR?HAL_NRF_RX_FIFO_EMPTY?HAL_NRF
   *DEL*:           00000CH   BYTE   UNIT     CODE           ?PR?HAL_NRF_RX_FIFO_FULL?HAL_NRF
   *DEL*:           00000CH   BYTE   UNIT     CODE           ?PR?HAL_NRF_TX_FIFO_FULL?HAL_NRF
   *DEL*:           000016H   BYTE   UNIT     CODE           ?PR?HAL_NRF_GET_TX_FIFO_STATUS?HAL_NRF
   *DEL*:           00000AH   BYTE   UNIT     CODE           ?PR?HAL_NRF_GET_RX_FIFO_STATUS?HAL_NRF
   *DEL*:           000005H   BYTE   UNIT     CODE           ?PR?HAL_NRF_GET_FIFO_STATUS?HAL_NRF
   *DEL*:           000001H   BYTE   UNIT     CODE           ?PR?HAL_NRF_ACTIVATE_FEATURES?HAL_NRF
   *DEL*:           00002CH   BYTE   UNIT     CODE           ?PR?_HAL_NRF_ENABLE_DYNAMIC_ACK?HAL_NRF
   *DEL*:           000002H   BYTE   UNIT     XDATA          ?XD?_HAL_NRF_ENABLE_DYNAMIC_ACK?HAL_NRF
   *DEL*:           00000AH   BYTE   UNIT     CODE           ?PR?_HAL_NRF_WRITE_TX_PAYLOAD?HAL_NRF
   *DEL*:           00000AH   BYTE   UNIT     CODE           ?PR?_HAL_NRF_WRITE_TX_PAYLOAD_NOACK?HAL_NRF
   *DEL*:           00000FH   BYTE   UNIT     CODE           ?PR?_HAL_NRF_WRITE_ACK_PAYLOAD?HAL_NRF
   *DEL*:           000005H   BYTE   UNIT     XDATA          ?XD?_HAL_NRF_WRITE_ACK_PAYLOAD?HAL_NRF
   *DEL*:           000005H   BYTE   UNIT     CODE           ?PR?HAL_NRF_READ_RX_PAYLOAD_WIDTH?HAL_NRF
   *DEL*:           000005H   BYTE   UNIT     CODE           ?PR?_HAL_NRF_READ_RX_PAYLOAD?HAL_NRF
   *DEL*:           00000EH   BYTE   UNIT     CODE           ?PR?HAL_NRF_GET_RX_DATA_SOURCE?HAL_NRF
   *DEL*:           00000AH   BYTE   UNIT     CODE           ?PR?HAL_NRF_REUSE_TX?HAL_NRF
   *DEL*:           000013H   BYTE   UNIT     CODE           ?PR?HAL_NRF_GET_REUSE_TX_STATUS?HAL_NRF
   *DEL*:           00000AH   BYTE   UNIT     CODE           ?PR?HAL_NRF_NOP?HAL_NRF
   *DEL*:           00002FH   BYTE   UNIT     CODE           ?PR?_HAL_NRF_SET_PLL_MODE?HAL_NRF
   *DEL*:           000002H   BYTE   UNIT     XDATA          ?XD?_HAL_NRF_SET_PLL_MODE?HAL_NRF
   *DEL*:           000032H   BYTE   UNIT     CODE           ?PR?_HAL_NRF_ENABLE_CONTINIOUS_WAVE?HAL_NRF
   *DEL*:           000002H   BYTE   UNIT     XDATA          ?XD?_HAL_NRF_ENABLE_CONTINIOUS_WAVE?HAL_NRF
   *DEL*:           0001FEH   BYTE   UNIT     CODE           ?PR?_HAL_NRF_READ_MULTIBYTE_REG?HAL_NRF
   *DEL*:           00000CH   BYTE   UNIT     XDATA          ?XD?_HAL_NRF_READ_MULTIBYTE_REG?HAL_NRF
   *DEL*:           000029H   BYTE   UNIT     CODE           ?PR?_LIB_CRYPT_INIT?LIB_CRYPT
   *DEL*:           000006H   BYTE   UNIT     XDATA          ?XD?_LIB_CRYPT_INIT?LIB_CRYPT
   *DEL*:           000033H   BYTE   UNIT     CODE           ?PR?_LIB_CRYPT_SET_COUNTER?LIB_CRYPT
   *DEL*:           000003H   BYTE   UNIT     XDATA          ?XD?_LIB_CRYPT_SET_COUNTER?LIB_CRYPT
   *DEL*:           00008EH   BYTE   UNIT     CODE           ?PR?_LIB_CRYPT?LIB_CRYPT
   *DEL*:           00001AH   BYTE   UNIT     XDATA          ?XD?_LIB_CRYPT?LIB_CRYPT
   *DEL*:           000054H   BYTE   UNIT     CODE           ?PR?_LIB_CRYPT_GENERATE_LS5B?LIB_CRYPT_LU1
   *DEL*:           000003H   BYTE   UNIT     XDATA          ?XD?_LIB_CRYPT_GENERATE_LS5B?LIB_CRYPT_LU1



OVERLAY MAP OF MODULE:   .\build\iHomeDongle (?C_STARTUP)


LX51 LINKER/LOCATER V4.66.41.0                                                        02/08/2016  23:35:20  PAGE 8


FUNCTION/MODULE                               XDATA_GROUP
--> CALLED FUNCTION/MODULE                    START  STOP
=========================================================
?C_C51STARTUP                                 ----- -----
  +--> MAIN/MAIN
  +--> ?C_INITSEG

MAIN/MAIN                                     804EH 8068H
  +--> MCU_INIT/GZLL_MCU
  +--> GZLL_INIT/GZLL
  +--> USB_INIT/MAIN
  +--> _DELAY_MS/HAL_DELAY
  +--> ?CO?MAIN
  +--> _USB_SEND_DATA_SYNC/MAIN
  +--> GZLL_RX_START/GZLL

MCU_INIT/GZLL_MCU                             ----- -----

GZLL_INIT/GZLL                                8069H 806DH
  +--> ?CO?GZLL
  +--> GZLL_INTERUPTS_DISABLE_RFCK_ENABLE/GZLL
  +--> _HAL_NRF_ENABLE_ACK_PAYLOAD/HAL_NRF
  +--> _HAL_NRF_ENABLE_DYNAMIC_PAYLOAD/HAL_NRF
  +--> _HAL_NRF_SETUP_DYNAMIC_PAYLOAD/HAL_NRF
  +--> _HAL_NRF_SET_ADDRESS/HAL_NRF
  +--> _HAL_NRF_SET_RF_CHANNEL/HAL_NRF
  +--> _HAL_NRF_SET_OUTPUT_POWER/HAL_NRF
  +--> _HAL_NRF_SET_DATARATE/HAL_NRF
  +--> _HAL_NRF_SET_CRC_MODE/HAL_NRF
  +--> _HAL_NRF_SET_ADDRESS_WIDTH/HAL_NRF
  +--> HAL_NRF_GET_CLEAR_IRQ_FLAGS/HAL_NRF
  +--> HAL_NRF_FLUSH_RX/HAL_NRF
  +--> HAL_NRF_FLUSH_TX/HAL_NRF
  +--> _GZLL_SET_TIMER_PERIOD/GZLL_MCU
  +--> GZLL_SET_SYSTEM_IDLE/GZLL
  +--> GZLL_INTERUPTS_ENABLE_RFCK_DISABLE/GZLL

?CO?GZLL                                      ----- -----

GZLL_INTERUPTS_DISABLE_RFCK_ENABLE/GZLL       ----- -----

_HAL_NRF_ENABLE_ACK_PAYLOAD/HAL_NRF           806EH 806FH
  +--> _HAL_NRF_READ_REG/HAL_NRF
  +--> _HAL_NRF_WRITE_REG/HAL_NRF

_HAL_NRF_READ_REG/HAL_NRF                     ----- -----

_HAL_NRF_WRITE_REG/HAL_NRF                    808AH 808AH

_HAL_NRF_ENABLE_DYNAMIC_PAYLOAD/HAL_NRF       806EH 806FH
  +--> _HAL_NRF_READ_REG/HAL_NRF
  +--> _HAL_NRF_WRITE_REG/HAL_NRF

_HAL_NRF_SETUP_DYNAMIC_PAYLOAD/HAL_NRF        806EH 806EH
  +--> _HAL_NRF_WRITE_REG/HAL_NRF

_HAL_NRF_SET_ADDRESS/HAL_NRF                  806EH 8071H
  +--> HAL_NRF_GET_ADDRESS_WIDTH/HAL_NRF
  +--> _HAL_NRF_WRITE_MULTIBYTE_REG/HAL_NRF
  +--> _HAL_NRF_WRITE_REG/HAL_NRF

HAL_NRF_GET_ADDRESS_WIDTH/HAL_NRF             ----- -----
  +--> _HAL_NRF_READ_REG/HAL_NRF

_HAL_NRF_WRITE_MULTIBYTE_REG/HAL_NRF          8072H 807AH
LX51 LINKER/LOCATER V4.66.41.0                                                        02/08/2016  23:35:20  PAGE 9



_HAL_NRF_SET_RF_CHANNEL/HAL_NRF               8088H 8088H
  +--> _HAL_NRF_WRITE_REG/HAL_NRF

_HAL_NRF_SET_OUTPUT_POWER/HAL_NRF             806EH 806FH
  +--> _HAL_NRF_READ_REG/HAL_NRF
  +--> _HAL_NRF_WRITE_REG/HAL_NRF

_HAL_NRF_SET_DATARATE/HAL_NRF                 806EH 806FH
  +--> _HAL_NRF_READ_REG/HAL_NRF
  +--> _HAL_NRF_WRITE_REG/HAL_NRF

_HAL_NRF_SET_CRC_MODE/HAL_NRF                 806EH 806FH
  +--> _HAL_NRF_READ_REG/HAL_NRF
  +--> _HAL_NRF_WRITE_REG/HAL_NRF

_HAL_NRF_SET_ADDRESS_WIDTH/HAL_NRF            806EH 806EH
  +--> _HAL_NRF_WRITE_REG/HAL_NRF

HAL_NRF_GET_CLEAR_IRQ_FLAGS/HAL_NRF           ----- -----
  +--> _HAL_NRF_WRITE_REG/HAL_NRF

HAL_NRF_FLUSH_RX/HAL_NRF                      ----- -----
  +--> _HAL_NRF_RW/HAL_NRF_HW

_HAL_NRF_RW/HAL_NRF_HW                        ----- -----

HAL_NRF_FLUSH_TX/HAL_NRF                      ----- -----
  +--> _HAL_NRF_RW/HAL_NRF_HW

_GZLL_SET_TIMER_PERIOD/GZLL_MCU               ----- -----

GZLL_SET_SYSTEM_IDLE/GZLL                     ----- -----
  +--> _GZLL_DELAY_50US/GZLL
  +--> _GZLL_SET_RADIO_POWER_ON/GZLL

_GZLL_DELAY_50US/GZLL                         ----- -----

_GZLL_SET_RADIO_POWER_ON/GZLL                 ----- -----
  +--> _HAL_NRF_SET_POWER_MODE/HAL_NRF

_HAL_NRF_SET_POWER_MODE/HAL_NRF               8088H 8089H
  +--> _HAL_NRF_READ_REG/HAL_NRF
  +--> _HAL_NRF_WRITE_REG/HAL_NRF

GZLL_INTERUPTS_ENABLE_RFCK_DISABLE/GZLL       ----- -----

USB_INIT/MAIN                                 ----- -----
  +--> _?RESET_CB/MAIN
  +--> _?RESUME_CB/MAIN
  +--> _?SUSPEND_CB/MAIN
  +--> _?DEVICE_REQ_CB/MAIN
  +--> _HAL_USB_INIT/HAL_USB
  +--> _?EP_1_IN_CB/MAIN
  +--> _HAL_USB_ENDPOINT_CONFIG/HAL_USB

_?RESET_CB/MAIN                               ----- -----

_?RESUME_CB/MAIN                              ----- -----

_?SUSPEND_CB/MAIN                             ----- -----

_?DEVICE_REQ_CB/MAIN                          ----- -----
  +--> _?HAL_USB_HID_DEVICE_REQ_PROC/HAL_USB_HID

LX51 LINKER/LOCATER V4.66.41.0                                                        02/08/2016  23:35:20  PAGE 10


_?HAL_USB_HID_DEVICE_REQ_PROC/HAL_USB_HI+     ----- -----
... D
  +--> ?CO?USB_HID_DESC

?CO?USB_HID_DESC                              ----- -----
  +--> ?CO?USB_DESC

?CO?USB_DESC                                  ----- -----

_HAL_USB_INIT/HAL_USB                         8069H 8075H
  +--> ?CO?USB_DESC
  +--> _DELAY_MS/HAL_DELAY

_DELAY_MS/HAL_DELAY                           ----- -----
  +--> _DELAY_US/HAL_DELAY

_DELAY_US/HAL_DELAY                           ----- -----

_?EP_1_IN_CB/MAIN                             ----- -----

_HAL_USB_ENDPOINT_CONFIG/HAL_USB              8069H 806CH

?CO?MAIN                                      ----- -----

_USB_SEND_DATA_SYNC/MAIN                      8069H 806DH
  +--> _USB_SEND_DATA/MAIN

_USB_SEND_DATA/MAIN                           806EH 8073H
  +--> _HAL_USB_SEND_DATA/HAL_USB

_HAL_USB_SEND_DATA/HAL_USB                    8074H 807DH

GZLL_RX_START/GZLL                            8069H 8069H
  +--> GZLL_GOTO_IDLE/GZLL
  +--> GZLL_INTERUPTS_DISABLE_RFCK_ENABLE/GZLL
  +--> _HAL_NRF_SET_ADDRESS/HAL_NRF
  +--> _HAL_NRF_CLOSE_PIPE/HAL_NRF
  +--> _HAL_NRF_OPEN_PIPE/HAL_NRF
  +--> _HAL_NRF_SET_OPERATION_MODE/HAL_NRF
  +--> _GZLL_SET_RADIO_POWER_ON/GZLL
  +--> GZLL_INTERUPTS_ENABLE_RFCK_DISABLE/GZLL

GZLL_GOTO_IDLE/GZLL                           ----- -----
  +--> GZLL_INTERUPTS_DISABLE_RFCK_ENABLE/GZLL
  +--> GZLL_SET_SYSTEM_IDLE/GZLL
  +--> GZLL_INTERUPTS_ENABLE_RFCK_DISABLE/GZLL

_HAL_NRF_CLOSE_PIPE/HAL_NRF                   806AH 806CH
  +--> _HAL_NRF_READ_REG/HAL_NRF
  +--> _HAL_NRF_WRITE_REG/HAL_NRF

_HAL_NRF_OPEN_PIPE/HAL_NRF                    806AH 806DH
  +--> _HAL_NRF_READ_REG/HAL_NRF
  +--> _HAL_NRF_WRITE_REG/HAL_NRF

_HAL_NRF_SET_OPERATION_MODE/HAL_NRF           806AH 806BH
  +--> _HAL_NRF_READ_REG/HAL_NRF
  +--> _HAL_NRF_WRITE_REG/HAL_NRF

?C_INITSEG                                    ----- -----

*** NEW ROOT ********************************

NRF_ISR/GZLL_RADIO_ISR                        ----- -----
  +--> GZLL_RADIO_ISR_FUNCTION/GZLL
LX51 LINKER/LOCATER V4.66.41.0                                                        02/08/2016  23:35:20  PAGE 11



GZLL_RADIO_ISR_FUNCTION/GZLL                  807EH 8081H
  +--> HAL_NRF_CLEAR_IRQ_FLAGS_GET_STATUS/HAL_NRF
  +--> HAL_NRF_GET_CARRIER_DETECT/HAL_NRF
  +--> GZLL_CHM_HOLD_RX_CHANNEL/GZLL
  +--> HAL_NRF_GET_TRANSMIT_ATTEMPTS/HAL_NRF
  +--> _GZLL_SET_TIMER_PERIOD/GZLL_MCU
  +--> GZLL_CHM_RESET_RX_CHANNEL_INDEX/GZLL
  +--> HAL_NRF_TX_FIFO_EMPTY/HAL_NRF
  +--> GZLL_SET_SYSTEM_IDLE/GZLL
  +--> GZLL_RELOAD_TRIES_PR_CHANNEL_COUNTER/GZLL
  +--> _DELAY_US/HAL_DELAY
  +--> GZLL_CHM_GET_TX_CE_OFFSET/GZLL
  +--> _GZLL_START_NEW_TX/GZLL
  +--> GZLL_SET_RADIO_AUTO_RETRIES/GZLL

HAL_NRF_CLEAR_IRQ_FLAGS_GET_STATUS/HAL_N+     8082H 8082H
... RF
  +--> _HAL_NRF_WRITE_REG/HAL_NRF
  +--> _HAL_NRF_READ_REG/HAL_NRF

HAL_NRF_GET_CARRIER_DETECT/HAL_NRF            ----- -----
  +--> _HAL_NRF_READ_REG/HAL_NRF

GZLL_CHM_HOLD_RX_CHANNEL/GZLL                 ----- -----

HAL_NRF_GET_TRANSMIT_ATTEMPTS/HAL_NRF         ----- -----
  +--> _HAL_NRF_READ_REG/HAL_NRF

GZLL_CHM_RESET_RX_CHANNEL_INDEX/GZLL          ----- -----

HAL_NRF_TX_FIFO_EMPTY/HAL_NRF                 ----- -----
  +--> _HAL_NRF_READ_REG/HAL_NRF

GZLL_RELOAD_TRIES_PR_CHANNEL_COUNTER/GZL+     ----- -----
... L

GZLL_CHM_GET_TX_CE_OFFSET/GZLL                ----- -----

_GZLL_START_NEW_TX/GZLL                       8082H 8083H
  +--> GZLL_RELOAD_TRIES_PR_CHANNEL_COUNTER/GZLL
  +--> GZLL_SET_RADIO_AUTO_RETRIES/GZLL
  +--> _GZLL_LFSR_GET/GZLL
  +--> GZLL_CHM_GET_NEXT_RX_CHANNEL/GZLL
  +--> _HAL_NRF_SET_RF_CHANNEL/HAL_NRF
  +--> _DELAY_US/HAL_DELAY

GZLL_SET_RADIO_AUTO_RETRIES/GZLL              ----- -----
  +--> _HAL_NRF_SET_AUTO_RETR/HAL_NRF

_HAL_NRF_SET_AUTO_RETR/HAL_NRF                8084H 8084H
  +--> _HAL_NRF_WRITE_REG/HAL_NRF

_GZLL_LFSR_GET/GZLL                           ----- -----

GZLL_CHM_GET_NEXT_RX_CHANNEL/GZLL             ----- -----

*** NEW ROOT ********************************

T2_ISR/GZLL_TIMER_ISR                         ----- -----
  +--> GZLL_TIMER_ISR_FUNCTION/GZLL

GZLL_TIMER_ISR_FUNCTION/GZLL                  8086H 8087H
  +--> GZLL_CHM_EXECUTE/GZLL
  +--> _GZLL_SET_TIMER_PERIOD/GZLL_MCU
LX51 LINKER/LOCATER V4.66.41.0                                                        02/08/2016  23:35:20  PAGE 12


  +--> GZLL_CHM_GET_CURRENT_RX_CHANNEL/GZLL
  +--> _HAL_NRF_SET_RF_CHANNEL/HAL_NRF
  +--> GZLL_CHM_GET_RX_CE_OFFSET/GZLL
  +--> _GZLL_SET_RADIO_POWER_ON/GZLL
  +--> GZLL_SET_SYSTEM_IDLE/GZLL
  +--> GZLL_CHM_GET_TX_CE_OFFSET/GZLL
  +--> _DELAY_US/HAL_DELAY

GZLL_CHM_EXECUTE/GZLL                         ----- -----

GZLL_CHM_GET_CURRENT_RX_CHANNEL/GZLL          ----- -----

GZLL_CHM_GET_RX_CE_OFFSET/GZLL                ----- -----

*** NEW ROOT ********************************

USB_WU_ISR/HAL_USB                            ----- -----
  +--> _DELAY_MS/HAL_DELAY

*** NEW ROOT ********************************

USB_ISR/HAL_USB                               808BH 8092H
  +--> ISR_SUDAV/HAL_USB
  +--> ISR_SUSPEND/HAL_USB
  +--> ISR_USBRESET/HAL_USB
  +--> PACKETIZER_ISR_EP0_IN/HAL_USB
  +--> USB_PROCESS_DEV_REQ_CB_RESPONSE/HAL_USB
  +--> _USB_PROCESS_EP_RESPONSE/HAL_USB

ISR_SUDAV/HAL_USB                             ----- -----
  +--> USB_PROCESS_GET_DESCRIPTOR/HAL_USB
  +--> USB_PROCESS_GET_STATUS/HAL_USB
  +--> _HAL_USB_ENDPOINT_STALL/HAL_USB
  +--> USB_PROCESS_DEV_REQ_CB_RESPONSE/HAL_USB

USB_PROCESS_GET_DESCRIPTOR/HAL_USB            ----- -----
  +--> _PACKETIZE/HAL_USB
  +--> PACKETIZER_ISR_EP0_IN/HAL_USB
  +--> USB_PROCESS_DEV_REQ_CB_RESPONSE/HAL_USB

_PACKETIZE/HAL_USB                            ----- -----

PACKETIZER_ISR_EP0_IN/HAL_USB                 ----- -----

USB_PROCESS_DEV_REQ_CB_RESPONSE/HAL_USB       8093H 8096H
  +--> _PACKETIZE/HAL_USB
  +--> PACKETIZER_ISR_EP0_IN/HAL_USB

USB_PROCESS_GET_STATUS/HAL_USB                8093H 8094H

_HAL_USB_ENDPOINT_STALL/HAL_USB               8093H 8094H

ISR_SUSPEND/HAL_USB                           ----- -----

ISR_USBRESET/HAL_USB                          ----- -----

_USB_PROCESS_EP_RESPONSE/HAL_USB              ----- -----



PUBLIC SYMBOLS OF MODULE:  .\build\iHomeDongle (?C_STARTUP)


      VALUE       CLASS    TYPE      PUBLIC SYMBOL NAME
      =================================================
LX51 LINKER/LOCATER V4.66.41.0                                                        02/08/2016  23:35:20  PAGE 13


*DEL*:00000000H   XDATA    BYTE      ?_aes_data_read_buf?BYTE
*DEL*:00000000H   XDATA    BYTE      ?_aes_data_write_buf?BYTE
*DEL*:00000000H   XDATA    BYTE      ?_aes_initvect_write_buf?BYTE
*DEL*:00000000H   XDATA    BYTE      ?_aes_keyin_write_buf?BYTE
*DEL*:00000000H   XDATA    BYTE      ?_gzll_ack_payload_write?BYTE
*DEL*:00000000H   XDATA    BYTE      ?_gzll_rx_fifo_read?BYTE
*DEL*:00000000H   XDATA    BYTE      ?_gzll_tx_data?BYTE
*DEL*:00000000H   XDATA    BYTE      ?_hal_aes_crypt?BYTE
*DEL*:00000000H   XDATA    BYTE      ?_hal_aes_get_dec_key?BYTE
*DEL*:00000000H   XDATA    BYTE      ?_hal_aes_setup?BYTE
*DEL*:00000000H   XDATA    BYTE      ?_hal_nrf_write_ack_payload?BYTE
      02008072H   XDATA    BYTE      ?_hal_nrf_write_multibyte_reg?BYTE
      02008069H   XDATA    BYTE      ?_hal_usb_init?BYTE
      02008074H   XDATA    BYTE      ?_hal_usb_send_data?BYTE
*DEL*:00000000H   XDATA    BYTE      ?_lib_crypt?BYTE
*DEL*:00000000H   XDATA    BYTE      ?_lib_crypt_init?BYTE
      0200806EH   XDATA    BYTE      ?_usb_send_data?BYTE
*DEL*:00000000H   XDATA    BYTE      ?_usb_send_data_async?BYTE
      02008069H   XDATA    BYTE      ?_usb_send_data_sync?BYTE
      01000669H   CODE     ---       ?C?ADDXBP
      01000342H   CODE     ---       ?C?CASTF
      0100063DH   CODE     ---       ?C?CCASE
      010004D2H   CODE     ---       ?C?CLDOPTR
      010004B9H   CODE     ---       ?C?CLDPTR
      00000000H   NUMBER   ---       ?C?CODESEG
      01000493H   CODE     ---       ?C?COPY
      01000511H   CODE     ---       ?C?CSTOPTR
      010004FFH   CODE     ---       ?C?CSTPTR
      0100030EH   CODE     ---       ?C?FCASTC
      01000309H   CODE     ---       ?C?FCASTI
      01000304H   CODE     ---       ?C?FCASTL
      0100006DH   CODE     ---       ?C?FPADD
      01000267H   CODE     ---       ?C?FPDIV
      01000379H   CODE     ---       ?C?FPGETOPN2
      0100015EH   CODE     ---       ?C?FPMUL
      010003AEH   CODE     ---       ?C?FPNANRESULT
      010003B8H   CODE     ---       ?C?FPOVERFLOW
      01000390H   CODE     ---       ?C?FPRESULT
      010003A4H   CODE     ---       ?C?FPRESULT2
      01000069H   CODE     ---       ?C?FPSUB
      010003B5H   CODE     ---       ?C?FPUNDERFLOW
      01000663H   CODE     ---       ?C?ICALL
      01000667H   CODE     ---       ?C?ICALL2
      0100059AH   CODE     ---       ?C?IILDX
      01000533H   CODE     ---       ?C?IMUL
      010005B0H   CODE     ---       ?C?LNEG
      0100069AH   CODE     ---       ?C?MEMSET
      010006FCH   CODE     ---       ?C?PLDCODE
      010006C6H   CODE     ---       ?C?PLDIDATA
      0100060DH   CODE     ---       ?C?PLDOPTR
      010006EAH   CODE     ---       ?C?PLDPDATA
      010006D8H   CODE     ---       ?C?PLDXDATA
      010006CFH   CODE     ---       ?C?PSTIDATA
      010006F3H   CODE     ---       ?C?PSTPDATA
      010005BEH   CODE     ---       ?C?PSTPTR
      010006E1H   CODE     ---       ?C?PSTXDATA
      01000545H   CODE     ---       ?C?UIDIV
      0100068DH   CODE     ---       ?C?XBPOFF
      00000000H   NUMBER   ---       ?C?XDATASEG
      01000755H   CODE     ---       ?C_START
      01000000H   CODE     NEAR LAB  ?C_STARTUP
      00000008H   DATA     ---       ?C_XBP
      010008A6H   CODE     ---       _?device_req_cb
      0100002EH   CODE     ---       _?ep_1_in_cb
*DEL*:00000000H   CODE     ---       _?ep_1_out_cb
LX51 LINKER/LOCATER V4.66.41.0                                                        02/08/2016  23:35:20  PAGE 14


      01000933H   CODE     ---       _?hal_usb_hid_device_req_proc
      01000018H   CODE     ---       _?reset_cb
      01000012H   CODE     ---       _?resume_cb
      0100000BH   CODE     ---       _?suspend_cb
*DEL*:00000000H   CODE     ---       _aes_data_read_buf
*DEL*:00000000H   CODE     ---       _aes_data_write_buf
*DEL*:00000000H   CODE     ---       _aes_initvect_write_buf
*DEL*:00000000H   CODE     ---       _aes_keyin_write_buf
*DEL*:00000000H   CODE     ---       _aes_select_e_d
*DEL*:00000000H   CODE     ---       _aes_set_mode
      0100124EH   CODE     ---       _delay_ms
      0100123FH   CODE     ---       _delay_us
*DEL*:00000000H   CODE     ---       _gzll_ack_payload_write
      0100188EH   CODE     ---       _gzll_delay_50us
*DEL*:00000000H   CODE     ---       _gzll_get_address
*DEL*:00000000H   CODE     ---       _gzll_get_channels
*DEL*:00000000H   CODE     ---       _gzll_get_param
*DEL*:00000000H   CODE     ---       _gzll_get_param_max
*DEL*:00000000H   CODE     ---       _gzll_rx_data_ready
*DEL*:00000000H   CODE     ---       _gzll_rx_fifo_read
*DEL*:00000000H   CODE     ---       _gzll_set_address
*DEL*:00000000H   CODE     ---       _gzll_set_channels
*DEL*:00000000H   CODE     ---       _gzll_set_param
      01000FF7H   CODE     ---       _gzll_set_timer_period
*DEL*:00000000H   CODE     ---       _gzll_tx_data
*DEL*:00000000H   CODE     ---       _hal_aes_crypt
*DEL*:00000000H   CODE     ---       _hal_aes_get_dec_key
*DEL*:00000000H   CODE     ---       _hal_aes_setup
*DEL*:00000000H   CODE     ---       _hal_nrf_clear_irq_flag
      01001625H   CODE     ---       _hal_nrf_close_pipe
      0100249BH   CODE     ---       _hal_nrf_enable_ack_payload
*DEL*:00000000H   CODE     ---       _hal_nrf_enable_continious_wave
*DEL*:00000000H   CODE     ---       _hal_nrf_enable_dynamic_ack
      0100246BH   CODE     ---       _hal_nrf_enable_dynamic_payload
*DEL*:00000000H   CODE     ---       _hal_nrf_get_address
*DEL*:00000000H   CODE     ---       _hal_nrf_get_pipe_status
*DEL*:00000000H   CODE     ---       _hal_nrf_get_rx_payload_width
      01001679H   CODE     ---       _hal_nrf_open_pipe
*DEL*:00000000H   CODE     ---       _hal_nrf_read_multibyte_reg
      0100160DH   CODE     ---       _hal_nrf_read_reg
*DEL*:00000000H   CODE     ---       _hal_nrf_read_rx_payload
      01000FD8H   CODE     ---       _hal_nrf_rw
      01000F72H   CODE     ---       _hal_nrf_set_address
      010023F4H   CODE     ---       _hal_nrf_set_address_width
      010015A0H   CODE     ---       _hal_nrf_set_auto_retr
      010023ACH   CODE     ---       _hal_nrf_set_crc_mode
      0100242FH   CODE     ---       _hal_nrf_set_datarate
*DEL*:00000000H   CODE     ---       _hal_nrf_set_irq_mode
      01001790H   CODE     ---       _hal_nrf_set_operation_mode
      01002411H   CODE     ---       _hal_nrf_set_output_power
*DEL*:00000000H   CODE     ---       _hal_nrf_set_pll_mode
      01001422H   CODE     ---       _hal_nrf_set_power_mode
      0100156FH   CODE     ---       _hal_nrf_set_rf_channel
*DEL*:00000000H   CODE     ---       _hal_nrf_set_rx_payload_width
      010017EAH   CODE     ---       _hal_nrf_setup_dynamic_payload
*DEL*:00000000H   CODE     ---       _hal_nrf_write_ack_payload
      010024C9H   CODE     ---       _hal_nrf_write_multibyte_reg
      010015C4H   CODE     ---       _hal_nrf_write_reg
*DEL*:00000000H   CODE     ---       _hal_nrf_write_tx_payload
*DEL*:00000000H   CODE     ---       _hal_nrf_write_tx_payload_noack
      010021C8H   CODE     ---       _hal_usb_endpoint_config
      01001AB0H   CODE     ---       _hal_usb_endpoint_stall
      01001989H   CODE     ---       _hal_usb_init
      01000D04H   CODE     ---       _hal_usb_send_data
*DEL*:00000000H   CODE     ---       _lib_crypt
LX51 LINKER/LOCATER V4.66.41.0                                                        02/08/2016  23:35:20  PAGE 15


*DEL*:00000000H   CODE     ---       _lib_crypt_generate_ls5b
*DEL*:00000000H   CODE     ---       _lib_crypt_init
*DEL*:00000000H   CODE     ---       _lib_crypt_set_counter
      01000C8DH   CODE     ---       _usb_send_data
*DEL*:00000000H   CODE     ---       _usb_send_data_async
      01000D97H   CODE     ---       _usb_send_data_sync
*SFR* 000000D0H.6 DATA     BIT       AC
*SFR* 000000E0H   DATA     BYTE      ACC
*DEL*:00000000H   CODE     ---       aes_busy
*DEL*:00000000H   CODE     ---       aes_go
*SFR* 000000E8H   DATA     BYTE      AESCS
*SFR* 000000F3H   DATA     BYTE      AESD
*SFR* 000000F5H   DATA     BYTE      AESIA1
*SFR* 000000F6H   DATA     BYTE      AESIA2
*SFR* 000000F2H   DATA     BYTE      AESIV
*SFR* 000000F1H   DATA     BYTE      AESKIN
*SFR* 000000EFH   DATA     BYTE      ARCON
*SFR* 000000F0H   DATA     BYTE      B
      00000021H.4 DATA     BIT       b_rfce
*SFR* 000000D8H.7 DATA     BIT       BD
      0200C789H   XDATA    BYTE      bin1addr
      0200C78AH   XDATA    BYTE      bin2addr
      0200C78BH   XDATA    BYTE      bin3addr
      0200C78CH   XDATA    BYTE      bin4addr
      0200C78DH   XDATA    BYTE      bin5addr
      0200C788H   XDATA    BYTE      binstaddr
      0200C781H   XDATA    BYTE      bout1addr
      0200C782H   XDATA    BYTE      bout2addr
      0200C783H   XDATA    BYTE      bout3addr
      0200C784H   XDATA    BYTE      bout4addr
      0200C785H   XDATA    BYTE      bout5addr
*SFR* 000000C2H   DATA     WORD      CC1
*SFR* 000000C4H   DATA     WORD      CC2
*SFR* 000000C6H   DATA     WORD      CC3
*SFR* 000000C1H   DATA     BYTE      CCEN
*SFR* 000000C3H   DATA     BYTE      CCH1
*SFR* 000000C5H   DATA     BYTE      CCH2
*SFR* 000000C7H   DATA     BYTE      CCH3
*SFR* 000000C2H   DATA     BYTE      CCL1
*SFR* 000000C4H   DATA     BYTE      CCL2
*SFR* 000000C6H   DATA     BYTE      CCL3
*SFR* 0000008EH   DATA     BYTE      CKCON
*SFR* 000000A3H   DATA     BYTE      CLKCTL
*SFR* 000000CAH   DATA     WORD      CRC
*SFR* 000000CBH   DATA     BYTE      CRCH
*SFR* 000000CAH   DATA     BYTE      CRCL
*SFR* 000000D0H.7 DATA     BIT       CY
*SFR* 000000E8H.1 DATA     BIT       DECR
*SFR* 00000083H   DATA     BYTE      DPH
*SFR* 00000085H   DATA     BYTE      DPH1
*SFR* 00000082H   DATA     BYTE      DPL
*SFR* 00000084H   DATA     BYTE      DPL1
*SFR* 00000092H   DATA     BYTE      DPS
*SFR* 000000A8H.7 DATA     BIT       EA
      0200C7B4H   XDATA    BYTE      ep0cs
*SFR* 000000A8H.4 DATA     BIT       ES0
*SFR* 000000A8H.1 DATA     BIT       ET0
*SFR* 000000A8H.3 DATA     BIT       ET1
*SFR* 000000A8H.5 DATA     BIT       ET2
*SFR* 000000A8H   DATA     BIT       EX0
*SFR* 000000A8H.2 DATA     BIT       EX1
*SFR* 000000B8H.7 DATA     BIT       EXEN2
*SFR* 000000C0H.7 DATA     BIT       EXF2
*SFR* 000000D0H.5 DATA     BIT       F0
*SFR* 000000D0H.1 DATA     BIT       F1
LX51 LINKER/LOCATER V4.66.41.0                                                        02/08/2016  23:35:20  PAGE 16


*SFR* 000000FAH   DATA     BYTE      FCR
      0200C7DBH   XDATA    BYTE      fnaddr
*SFR* 000000F9H   DATA     BYTE      FPCR
*SFR* 000000F8H   DATA     BYTE      FSR
      020080BAH   XDATA    ---       g_hal_usb
      010007F7H   CONST    ---       g_usb_conf_desc
      010007E5H   CONST    ---       g_usb_dev_desc
      0100087AH   CONST    ---       g_usb_hid_hids
      01000859H   CONST    ---       g_usb_hid_report_1
      01000850H   CONST    ---       g_usb_string_desc
      01000820H   CONST    ---       g_usb_string_desc_1
      0100082EH   CONST    ---       g_usb_string_desc_2
      01000846H   CONST    ---       g_usb_string_desc_3
*SFR* 000000E8H   DATA     BIT       GO
      00000021H.3 DATA     BIT       gzll_claim_rfck_en
*DEL*:00000000H   CODE     ---       gzll_dev_mode2_rx_channel_match
*DEL*:00000000H   CODE     ---       gzll_get_channel_tab_size
*DEL*:00000000H   CODE     ---       gzll_get_rx_data_ready_pipe_number
*DEL*:00000000H   CODE     ---       gzll_get_state
*DEL*:00000000H   CODE     ---       gzll_get_tx_attempts
*DEL*:00000000H   CODE     ---       gzll_get_tx_channel_switches
      01001770H   CODE     ---       gzll_goto_idle
      01000DD2H   CODE     ---       gzll_init
      00000021H.1 DATA     BIT       gzll_pending_goto_idle
      00000021H.0 DATA     BIT       gzll_pending_tx_start
      00000020H.7 DATA     BIT       gzll_power_on
*DEL*:00000000H   CODE     ---       gzll_radio_active
      00000020H.6 DATA     BIT       gzll_radio_active_f
      01001068H   CODE     ---       gzll_radio_isr_function
      00000020H.4 DATA     BIT       gzll_rx_dr
*DEL*:00000000H   CODE     ---       gzll_rx_fifo_flush
*DEL*:00000000H   CODE     ---       gzll_rx_power_high
      00000020H.5 DATA     BIT       gzll_rx_power_high_f
      00000020H.2 DATA     BIT       gzll_rx_setup_modified
      01001703H   CODE     ---       gzll_rx_start
      00000020H.3 DATA     BIT       gzll_sync_on
      010012D9H   CODE     ---       gzll_timer_isr_function
      00000021H.2 DATA     BIT       gzll_timer_period_modified
*DEL*:00000000H   CODE     ---       gzll_tx_fifo_flush
      00000020H.1 DATA     BIT       gzll_tx_setup_modified
*DEL*:00000000H   CODE     ---       gzll_tx_success
      00000020H.0 DATA     BIT       gzll_tx_success_f
*DEL*:00000000H   CODE     ---       hal_nrf_activate_features
      010015E4H   CODE     ---       hal_nrf_clear_irq_flags_get_status
      01000FCFH   CODE     ---       hal_nrf_flush_rx
      01000FE2H   CODE     ---       hal_nrf_flush_tx
      0100004EH   CODE     ---       hal_nrf_get_address_width
*DEL*:00000000H   CODE     ---       hal_nrf_get_auto_retr_status
      010017C5H   CODE     ---       hal_nrf_get_carrier_detect
      01000FEBH   CODE     ---       hal_nrf_get_clear_irq_flags
*DEL*:00000000H   CODE     ---       hal_nrf_get_fifo_status
*DEL*:00000000H   CODE     ---       hal_nrf_get_irq_flags
*DEL*:00000000H   CODE     ---       hal_nrf_get_packet_lost_ctr
*DEL*:00000000H   CODE     ---       hal_nrf_get_reuse_tx_status
*DEL*:00000000H   CODE     ---       hal_nrf_get_rx_data_source
*DEL*:00000000H   CODE     ---       hal_nrf_get_rx_fifo_status
      010017BCH   CODE     ---       hal_nrf_get_transmit_attempts
*DEL*:00000000H   CODE     ---       hal_nrf_get_tx_fifo_status
*DEL*:00000000H   CODE     ---       hal_nrf_nop
*DEL*:00000000H   CODE     ---       hal_nrf_read_rx_payload_width
*DEL*:00000000H   CODE     ---       hal_nrf_reuse_tx
*DEL*:00000000H   CODE     ---       hal_nrf_rx_fifo_empty
*DEL*:00000000H   CODE     ---       hal_nrf_rx_fifo_full
      010017CEH   CODE     ---       hal_nrf_tx_fifo_empty
*DEL*:00000000H   CODE     ---       hal_nrf_tx_fifo_full
LX51 LINKER/LOCATER V4.66.41.0                                                        02/08/2016  23:35:20  PAGE 17


*DEL*:00000000H   CODE     ---       hal_usb_bus_connect
*DEL*:00000000H   CODE     ---       hal_usb_bus_disconnect
*DEL*:00000000H   CODE     ---       hal_usb_get_address
*DEL*:00000000H   CODE     ---       hal_usb_get_state
*DEL*:00000000H   CODE     ---       hal_usb_reset
*DEL*:00000000H   CODE     ---       hal_usb_sleep
*DEL*:00000000H   CODE     ---       hal_usb_wakeup
*SFR* 000000C8H.5 DATA     BIT       I2FR
*SFR* 000000C8H.6 DATA     BIT       I3FR
*SFR* 00000088H.1 DATA     BIT       IE0
*SFR* 00000088H.3 DATA     BIT       IE1
*SFR* 000000A8H   DATA     BYTE      IEN0
*SFR* 000000B8H   DATA     BYTE      IEN1
*SFR* 0000009AH   DATA     BYTE      IEN2
      0200C7B5H   XDATA    BYTE      in0bc
      0200C700H   XDATA    ---       in0buf
      0200C7B7H   XDATA    BYTE      in1bc
      0200C680H   XDATA    ---       in1buf
      0200C7B6H   XDATA    BYTE      in1cs
      0200C7B9H   XDATA    BYTE      in2bc
      0200C600H   XDATA    ---       in2buf
      0200C7B8H   XDATA    BYTE      in2cs
      0200C7BBH   XDATA    BYTE      in3bc
      0200C580H   XDATA    ---       in3buf
      0200C7BAH   XDATA    BYTE      in3cs
      0200C7BDH   XDATA    BYTE      in4bc
      0200C500H   XDATA    ---       in4buf
      0200C7BCH   XDATA    BYTE      in4cs
      0200C7BFH   XDATA    BYTE      in5bc
      0200C480H   XDATA    ---       in5buf
      0200C7BEH   XDATA    BYTE      in5cs
      0200C7F8H   XDATA    BYTE      in8addr
      0200C768H   XDATA    BYTE      in8data
      0200C7ACH   XDATA    BYTE      in_ien
      0200C7A9H   XDATA    BYTE      in_irq
      0200C7DEH   XDATA    BYTE      inbulkval
*SFR* 000000F8H.3 DATA     BIT       INFEN
      0200C7E0H   XDATA    BYTE      inisoval
*SFR* 000000A6H   DATA     BYTE      INTEXP
*SFR* 000000A9H   DATA     BYTE      IP0
*SFR* 000000B9H   DATA     BYTE      IP1
*SFR* 000000C0H   DATA     BYTE      IRCON
      020080DEH   XDATA    BYTE      is_usb_data_ready
      020080F0H   XDATA    BYTE      is_usb_writing
      0200C7A0H   XDATA    BYTE      isoerr
      0200C7E3H   XDATA    BYTE      isosize
      0200C7E2H   XDATA    BYTE      isostaddr
*SFR* 00000088H   DATA     BIT       IT0
*SFR* 00000088H.2 DATA     BIT       IT1
*SFR* 000000A0H   DATA     BIT       IV0
*SFR* 000000A0H.1 DATA     BIT       IV1
*SFR* 000000A0H.2 DATA     BIT       IV2
*SFR* 000000A0H.3 DATA     BIT       IV3
*SFR* 000000A0H.4 DATA     BIT       IV4
      0200C7A8H   XDATA    BYTE      ivec
      01000DA7H   CODE     ---       main
*SFR* 000000F8H.7 DATA     BIT       MCDIS
*SFR* 00000080H.3 DATA     BIT       MCSN
      01000FC2H   CODE     ---       mcu_init
*SFR* 000000E9H   DATA     BYTE      MD0
*SFR* 000000EAH   DATA     BYTE      MD1
*SFR* 000000EBH   DATA     BYTE      MD2
*SFR* 000000ECH   DATA     BYTE      MD3
*SFR* 000000EDH   DATA     BYTE      MD4
*SFR* 000000EEH   DATA     BYTE      MD5
LX51 LINKER/LOCATER V4.66.41.0                                                        02/08/2016  23:35:20  PAGE 18


      0100102EH   CODE     ---       nrf_isr
      0200C7C5H   XDATA    BYTE      out0bc
      0200C6C0H   XDATA    ---       out0buf
      0200C7C7H   XDATA    BYTE      out1bc
      0200C640H   XDATA    ---       out1buf
      0200C7C6H   XDATA    BYTE      out1cs
      0200C7C9H   XDATA    BYTE      out2bc
      0200C5C0H   XDATA    ---       out2buf
      0200C7C8H   XDATA    BYTE      out2cs
      0200C7CBH   XDATA    BYTE      out3bc
      0200C540H   XDATA    ---       out3buf
      0200C7CAH   XDATA    BYTE      out3cs
      0200C7CDH   XDATA    BYTE      out4bc
      0200C4C0H   XDATA    ---       out4buf
      0200C7CCH   XDATA    BYTE      out4cs
      0200C7CFH   XDATA    BYTE      out5bc
      0200C440H   XDATA    ---       out5buf
      0200C7CEH   XDATA    BYTE      out5cs
      0200C7F0H   XDATA    BYTE      out8addr
      0200C770H   XDATA    BYTE      out8bch
      0200C771H   XDATA    BYTE      out8bcl
      0200C760H   XDATA    BYTE      out8data
      0200C7ADH   XDATA    BYTE      out_ien
      0200C7AAH   XDATA    BYTE      out_irq
      0200C7DFH   XDATA    BYTE      outbulkval
      0200C7E1H   XDATA    BYTE      outisoval
*SFR* 000000D0H.2 DATA     BIT       OV
*SFR* 000000D0H   DATA     BIT       P
*SFR* 00000080H   DATA     BYTE      P0
*SFR* 00000080H   DATA     BIT       P00
*SFR* 00000080H.1 DATA     BIT       P01
*SFR* 00000080H.2 DATA     BIT       P02
*SFR* 00000080H.3 DATA     BIT       P03
*SFR* 00000080H.4 DATA     BIT       P04
*SFR* 00000080H.5 DATA     BIT       P05
*SFR* 00000095H   DATA     BYTE      P0ALT
*SFR* 00000094H   DATA     BYTE      P0DIR
*SFR* 000000C9H   DATA     BYTE      P0EXP
*SFR* 00000087H   DATA     BYTE      PCON
*SFR* 000000A0H   DATA     BYTE      PPAGE_SFR
*SFR* 000000D0H   DATA     BYTE      PSW
*SFR* 000000A4H   DATA     BYTE      PWRDWN
*SFR* 00000098H.2 DATA     BIT       RB80
*SFR* 000000F8H.1 DATA     BIT       RDEND
*SFR* 000000F8H.2 DATA     BIT       RDIS
*SFR* 000000F8H.4 DATA     BIT       RDYN
*SFR* 000000ADH   DATA     BYTE      REGXC
*SFR* 000000ABH   DATA     BYTE      REGXH
*SFR* 000000ACH   DATA     BYTE      REGXL
*SFR* 00000098H.4 DATA     BIT       REN0
*SFR* 000000B8H.1 DATA     BIT       RF
*SFR* 00000090H   DATA     BIT       RFCE
*SFR* 00000090H.2 DATA     BIT       RFCKEN
*SFR* 00000090H   DATA     BYTE      RFCON
*SFR* 00000090H.1 DATA     BIT       RFCSN
*SFR* 000000E6H   DATA     BYTE      RFCTL
*SFR* 000000E5H   DATA     BYTE      RFDAT
*SFR* 000000C0H.1 DATA     BIT       RFF
*SFR* 000000B8H   DATA     BIT       RFSPI
*SFR* 000000C0H   DATA     BIT       RFSPIF
*SFR* 00000098H   DATA     BIT       RI0
*SFR* 000000D0H.3 DATA     BIT       RS0
*SFR* 000000D0H.4 DATA     BIT       RS1
*SFR* 000000B1H   DATA     BYTE      RSTRES
*SFR* 00000099H   DATA     BYTE      S0BUF
LX51 LINKER/LOCATER V4.66.41.0                                                        02/08/2016  23:35:20  PAGE 19


*SFR* 00000098H   DATA     BYTE      S0CON
*SFR* 000000BAH   DATA     BYTE      S0RELH
*SFR* 000000AAH   DATA     BYTE      S0RELL
*SFR* 00000080H.3 DATA     BIT       SCSN
      0200C7E8H   XDATA    ---       setupbuf
*SFR* 00000098H.7 DATA     BIT       SM0
*SFR* 00000098H.6 DATA     BIT       SM1
*SFR* 00000098H.5 DATA     BIT       SM20
*SFR* 000000B3H   DATA     BYTE      SMCTL
*SFR* 000000B2H   DATA     BYTE      SMDAT
*SFR* 00000081H   DATA     BYTE      SP
*SFR* 000000B8H.2 DATA     BIT       SPI
*SFR* 000000C0H.2 DATA     BIT       SPIF
*SFR* 000000BCH   DATA     BYTE      SSCONF
*SFR* 000000BDH   DATA     BYTE      SSDATA
*SFR* 000000BEH   DATA     BYTE      SSSTAT
*SFR* 000000F8H.6 DATA     BIT       STP
*SFR* 000000A0H.5 DATA     BIT       SUSPEND
*SFR* 000000A0H.7 DATA     BIT       SWRST
*SFR* 000000CCH   DATA     WORD      T2
      0100180AH   CODE     ---       t2_isr
*SFR* 000000C8H.2 DATA     BIT       T2CM
*SFR* 000000C8H   DATA     BYTE      T2CON
*SFR* 000000C8H   DATA     BIT       T2I0
*SFR* 000000C8H.1 DATA     BIT       T2I1
*SFR* 000000C8H.7 DATA     BIT       T2PS
*SFR* 000000C8H.3 DATA     BIT       T2R0
*SFR* 000000C8H.4 DATA     BIT       T2R1
*SFR* 00000098H.3 DATA     BIT       TB80
*SFR* 00000088H   DATA     BYTE      TCON
*SFR* 00000088H.5 DATA     BIT       TF0
*SFR* 00000088H.7 DATA     BIT       TF1
*SFR* 000000C0H.6 DATA     BIT       TF2
*SFR* 0000008CH   DATA     BYTE      TH0
*SFR* 0000008DH   DATA     BYTE      TH1
*SFR* 000000CDH   DATA     BYTE      TH2
*SFR* 00000098H.1 DATA     BIT       TI0
*SFR* 000000B5H   DATA     BYTE      TICKDV
      0200810FH   XDATA    WORD      timer_cnt
*SFR* 0000008AH   DATA     BYTE      TL0
*SFR* 0000008BH   DATA     BYTE      TL1
*SFR* 000000CCH   DATA     BYTE      TL2
*SFR* 00000089H   DATA     BYTE      TMOD
      0200C7D7H   XDATA    BYTE      togctl
*SFR* 00000088H.4 DATA     BIT       TR0
*SFR* 00000088H.6 DATA     BIT       TR1
*SFR* 000000B8H.4 DATA     BIT       USB
      020080DFH   XDATA    ---       usb_buf_rx
      020080EFH   XDATA    BYTE      usb_buf_rx_len
      020080E7H   XDATA    ---       usb_buf_tx
      01000F22H   CODE     ---       usb_init
      01001F52H   CODE     ---       usb_isr
      0100231FH   CODE     ---       usb_wu_isr
      0200C7AFH   XDATA    BYTE      usbbav
*SFR* 000000A0H   DATA     BYTE      USBCON
      0200C7D6H   XDATA    BYTE      usbcs
*SFR* 000000C0H.4 DATA     BIT       USBF
      0200C7D9H   XDATA    BYTE      usbfrmh
      0200C7D8H   XDATA    BYTE      usbfrml
      0200C7AEH   XDATA    BYTE      usbien
      0200C7ABH   XDATA    BYTE      usbirq
      0200C7DDH   XDATA    BYTE      usbpair
*SFR* 000000D9H   DATA     BYTE      USBSLP
*SFR* 000000B8H.3 DATA     BIT       USBWU
*SFR* 000000C0H.3 DATA     BIT       USBWUF
LX51 LINKER/LOCATER V4.66.41.0                                                        02/08/2016  23:35:20  PAGE 20


*SFR* 000000D8H   DATA     BYTE      WDCON
*SFR* 000000F8H.5 DATA     BIT       WEN
*SFR* 000000F8H   DATA     BIT       WPEN
*SFR* 000000A0H.6 DATA     BIT       WU
*SFR* 000000A5H   DATA     BYTE      WUCONF
*SFR* 000000C0H.5 DATA     BIT       WUF
*SFR* 000000B8H.5 DATA     BIT       WUIRQ
      0200C7A2H   XDATA    BYTE      zbcout



SYMBOL TABLE OF MODULE:  .\build\iHomeDongle (?C_STARTUP)

      VALUE       REP       CLASS    TYPE      SYMBOL NAME
      ====================================================
      ---         MODULE    ---      ---       ?C_STARTUP
      01000000H   PUBLIC    CODE     NEAR LAB  ?C_STARTUP
      000000E0H   SFRSYM    DATA     BYTE      ACC
      000000F0H   SFRSYM    DATA     BYTE      B
      00000083H   SFRSYM    DATA     BYTE      DPH
      00000082H   SFRSYM    DATA     BYTE      DPL
      000000A0H   SFRSYM    DATA     BYTE      PPAGE_SFR
      00000081H   SFRSYM    DATA     BYTE      SP
      00000000H   SYMBOL    NUMBER   ---       IBPSTACK
      00000100H   SYMBOL    NUMBER   ---       IBPSTACKTOP
      00000080H   SYMBOL    NUMBER   ---       IDATALEN
      0100070BH   SYMBOL    CODE     NEAR LAB  IDATALOOP
      00000000H   SYMBOL    NUMBER   ---       PBPSTACK
      00000100H   SYMBOL    NUMBER   ---       PBPSTACKTOP
      00000000H   SYMBOL    NUMBER   ---       PDATALEN
      00000000H   SYMBOL    NUMBER   ---       PDATASTART
      00000000H   SYMBOL    NUMBER   ---       PPAGE
      00000000H   SYMBOL    NUMBER   ---       PPAGEENABLE
      01000708H   SYMBOL    CODE     NEAR LAB  STARTUP1
      00000001H   SYMBOL    NUMBER   ---       XBPSTACK
      00008800H   SYMBOL    NUMBER   ---       XBPSTACKTOP
      00000000H   SYMBOL    NUMBER   ---       XDATALEN
      00000000H   SYMBOL    NUMBER   ---       XDATASTART

      01000000H   BLOCK     CODE     NEAR LAB  LVL=0
      01000000H   LINE      CODE     ---       #126
      ---         BLOCKEND  ---      ---       LVL=0

      01000708H   BLOCK     CODE     NEAR LAB  LVL=0
      01000708H   LINE      CODE     ---       #133
      0100070AH   LINE      CODE     ---       #134
      0100070BH   LINE      CODE     ---       #135
      0100070CH   LINE      CODE     ---       #136
      0100070EH   LINE      CODE     ---       #176
      01000711H   LINE      CODE     ---       #177
      01000714H   LINE      CODE     ---       #185
      01000717H   LINE      CODE     ---       #196
      ---         BLOCKEND  ---      ---       LVL=0

      ---         MODULE    ---      ---       MAIN
      020080F0H   PUBLIC    XDATA    BYTE      is_usb_writing
      020080EFH   PUBLIC    XDATA    BYTE      usb_buf_rx_len
      020080E7H   PUBLIC    XDATA    ---       usb_buf_tx
      020080DFH   PUBLIC    XDATA    ---       usb_buf_rx
      020080DEH   PUBLIC    XDATA    BYTE      is_usb_data_ready
      01000DA7H   PUBLIC    CODE     ---       main
      01000F22H   PUBLIC    CODE     ---       usb_init
      02008069H   PUBLIC    XDATA    BYTE      ?_usb_send_data_sync?BYTE
      01000D97H   PUBLIC    CODE     ---       _usb_send_data_sync
      0200806EH   PUBLIC    XDATA    BYTE      ?_usb_send_data?BYTE
LX51 LINKER/LOCATER V4.66.41.0                                                        02/08/2016  23:35:20  PAGE 21


      01000C8DH   PUBLIC    CODE     ---       _usb_send_data
      010008A6H   PUBLIC    CODE     ---       _?device_req_cb
      0100002EH   PUBLIC    CODE     ---       _?ep_1_in_cb
      01000018H   PUBLIC    CODE     ---       _?reset_cb
      01000012H   PUBLIC    CODE     ---       _?resume_cb
      0100000BH   PUBLIC    CODE     ---       _?suspend_cb
      00000098H.3 SFRSYM    DATA     BIT       TB80
      000000C8H   SFRSYM    DATA     BIT       T2I0
      000000C3H   SFRSYM    DATA     BYTE      CCH1
      000000ABH   SFRSYM    DATA     BYTE      REGXH
      00000080H   SFRSYM    DATA     BYTE      P0
      000000C8H.1 SFRSYM    DATA     BIT       T2I1
      000000C5H   SFRSYM    DATA     BYTE      CCH2
      000000C7H   SFRSYM    DATA     BYTE      CCH3
      00000098H.5 SFRSYM    DATA     BIT       SM20
      000000D0H.6 SFRSYM    DATA     BIT       AC
      000000C2H   SFRSYM    DATA     BYTE      CCL1
      000000ACH   SFRSYM    DATA     BYTE      REGXL
      000000C4H   SFRSYM    DATA     BYTE      CCL2
      000000B3H   SFRSYM    DATA     BYTE      SMCTL
      000000D8H.7 SFRSYM    DATA     BIT       BD
      000000B8H   SFRSYM    DATA     BIT       RFSPI
      000000A8H.7 SFRSYM    DATA     BIT       EA
      000000CCH   SFRSYM    DATA     WORD      T2
      000000C6H   SFRSYM    DATA     BYTE      CCL3
      000000C8H.3 SFRSYM    DATA     BIT       T2R0
      000000C8H.4 SFRSYM    DATA     BIT       T2R1
      000000A8H   SFRSYM    DATA     BYTE      IEN0
      000000B8H   SFRSYM    DATA     BYTE      IEN1
      00000085H   SFRSYM    DATA     BYTE      DPH1
      0000009AH   SFRSYM    DATA     BYTE      IEN2
      00000084H   SFRSYM    DATA     BYTE      DPL1
      000000C8H.5 SFRSYM    DATA     BIT       I2FR
      000000C8H.6 SFRSYM    DATA     BIT       I3FR
      000000E8H   SFRSYM    DATA     BIT       GO
      000000C0H.7 SFRSYM    DATA     BIT       EXF2
      00000098H.4 SFRSYM    DATA     BIT       REN0
      000000F5H   SFRSYM    DATA     BYTE      AESIA1
      000000C8H.2 SFRSYM    DATA     BIT       T2CM
      000000F6H   SFRSYM    DATA     BYTE      AESIA2
      000000B8H.1 SFRSYM    DATA     BIT       RF
      000000B8H.3 SFRSYM    DATA     BIT       USBWU
      000000B8H.5 SFRSYM    DATA     BIT       WUIRQ
      000000C1H   SFRSYM    DATA     BYTE      CCEN
      000000D0H.7 SFRSYM    DATA     BIT       CY
      000000F3H   SFRSYM    DATA     BYTE      AESD
      000000E8H.1 SFRSYM    DATA     BIT       DECR
      00000090H   SFRSYM    DATA     BIT       RFCE
      000000CBH   SFRSYM    DATA     BYTE      CRCH
      00000081H   SFRSYM    DATA     BYTE      SP
      000000A0H.5 SFRSYM    DATA     BIT       SUSPEND
      000000A0H.7 SFRSYM    DATA     BIT       SWRST
      000000D0H.2 SFRSYM    DATA     BIT       OV
      000000CAH   SFRSYM    DATA     BYTE      CRCL
      000000C8H.7 SFRSYM    DATA     BIT       T2PS
      000000A0H.6 SFRSYM    DATA     BIT       WU
      000000F9H   SFRSYM    DATA     BYTE      FPCR
      00000080H   SFRSYM    DATA     BIT       P00
      000000BAH   SFRSYM    DATA     BYTE      S0RELH
      00000080H.1 SFRSYM    DATA     BIT       P01
      000000C0H.4 SFRSYM    DATA     BIT       USBF
      00000087H   SFRSYM    DATA     BYTE      PCON
      00000080H.3 SFRSYM    DATA     BIT       MCSN
      00000080H.2 SFRSYM    DATA     BIT       P02
      00000080H.3 SFRSYM    DATA     BIT       P03
LX51 LINKER/LOCATER V4.66.41.0                                                        02/08/2016  23:35:20  PAGE 22


      000000C0H.2 SFRSYM    DATA     BIT       SPIF
      000000F8H.2 SFRSYM    DATA     BIT       RDIS
      00000080H.4 SFRSYM    DATA     BIT       P04
      000000AAH   SFRSYM    DATA     BYTE      S0RELL
      00000080H.5 SFRSYM    DATA     BIT       P05
      00000089H   SFRSYM    DATA     BYTE      TMOD
      00000088H   SFRSYM    DATA     BYTE      TCON
      000000C2H   SFRSYM    DATA     WORD      CC1
      00000080H.3 SFRSYM    DATA     BIT       SCSN
      000000C4H   SFRSYM    DATA     WORD      CC2
      000000C6H   SFRSYM    DATA     WORD      CC3
      00000090H.2 SFRSYM    DATA     BIT       RFCKEN
      000000F8H   SFRSYM    DATA     BIT       WPEN
      000000F1H   SFRSYM    DATA     BYTE      AESKIN
      00000088H.1 SFRSYM    DATA     BIT       IE0
      000000F8H.4 SFRSYM    DATA     BIT       RDYN
      00000088H.3 SFRSYM    DATA     BIT       IE1
      000000A3H   SFRSYM    DATA     BYTE      CLKCTL
      000000F0H   SFRSYM    DATA     BYTE      B
      000000E9H   SFRSYM    DATA     BYTE      MD0
      000000EAH   SFRSYM    DATA     BYTE      MD1
      000000BDH   SFRSYM    DATA     BYTE      SSDATA
      000000EBH   SFRSYM    DATA     BYTE      MD2
      000000ECH   SFRSYM    DATA     BYTE      MD3
      000000EDH   SFRSYM    DATA     BYTE      MD4
      000000EEH   SFRSYM    DATA     BYTE      MD5
      000000E0H   SFRSYM    DATA     BYTE      ACC
      000000B5H   SFRSYM    DATA     BYTE      TICKDV
      000000A8H.4 SFRSYM    DATA     BIT       ES0
      000000A8H.1 SFRSYM    DATA     BIT       ET0
      000000A9H   SFRSYM    DATA     BYTE      IP0
      000000A8H.3 SFRSYM    DATA     BIT       ET1
      00000088H.5 SFRSYM    DATA     BIT       TF0
      000000B9H   SFRSYM    DATA     BYTE      IP1
      000000A8H.5 SFRSYM    DATA     BIT       ET2
      00000098H   SFRSYM    DATA     BIT       RI0
      00000088H.7 SFRSYM    DATA     BIT       TF1
      000000C0H   SFRSYM    DATA     BIT       RFSPIF
      000000C0H.6 SFRSYM    DATA     BIT       TF2
      000000A0H   SFRSYM    DATA     BYTE      USBCON
      0000008CH   SFRSYM    DATA     BYTE      TH0
      000000A8H   SFRSYM    DATA     BIT       EX0
      00000098H.1 SFRSYM    DATA     BIT       TI0
      00000088H   SFRSYM    DATA     BIT       IT0
      0000008DH   SFRSYM    DATA     BYTE      TH1
      000000A8H.2 SFRSYM    DATA     BIT       EX1
      00000088H.2 SFRSYM    DATA     BIT       IT1
      000000CDH   SFRSYM    DATA     BYTE      TH2
      000000BCH   SFRSYM    DATA     BYTE      SSCONF
      000000A0H   SFRSYM    DATA     BIT       IV0
      000000D0H   SFRSYM    DATA     BIT       P
      000000A0H.1 SFRSYM    DATA     BIT       IV1
      00000098H.7 SFRSYM    DATA     BIT       SM0
      0000008AH   SFRSYM    DATA     BYTE      TL0
      000000A0H.2 SFRSYM    DATA     BIT       IV2
      00000098H.6 SFRSYM    DATA     BIT       SM1
      0000008BH   SFRSYM    DATA     BYTE      TL1
      000000A0H.3 SFRSYM    DATA     BIT       IV3
      000000CCH   SFRSYM    DATA     BYTE      TL2
      000000A0H.4 SFRSYM    DATA     BIT       IV4
      000000A5H   SFRSYM    DATA     BYTE      WUCONF
      000000D0H.3 SFRSYM    DATA     BIT       RS0
      00000088H.4 SFRSYM    DATA     BIT       TR0
      000000D0H.4 SFRSYM    DATA     BIT       RS1
      00000088H.6 SFRSYM    DATA     BIT       TR1
LX51 LINKER/LOCATER V4.66.41.0                                                        02/08/2016  23:35:20  PAGE 23


      000000CAH   SFRSYM    DATA     WORD      CRC
      000000A6H   SFRSYM    DATA     BYTE      INTEXP
      000000FAH   SFRSYM    DATA     BYTE      FCR
      000000D9H   SFRSYM    DATA     BYTE      USBSLP
      00000083H   SFRSYM    DATA     BYTE      DPH
      000000C0H.1 SFRSYM    DATA     BIT       RFF
      000000C0H.3 SFRSYM    DATA     BIT       USBWUF
      00000094H   SFRSYM    DATA     BYTE      P0DIR
      00000082H   SFRSYM    DATA     BYTE      DPL
      00000099H   SFRSYM    DATA     BYTE      S0BUF
      00000095H   SFRSYM    DATA     BYTE      P0ALT
      000000B8H.7 SFRSYM    DATA     BIT       EXEN2
      000000BEH   SFRSYM    DATA     BYTE      SSSTAT
      000000A4H   SFRSYM    DATA     BYTE      PWRDWN
      00000098H   SFRSYM    DATA     BYTE      S0CON
      000000B1H   SFRSYM    DATA     BYTE      RSTRES
      000000C8H   SFRSYM    DATA     BYTE      T2CON
      00000092H   SFRSYM    DATA     BYTE      DPS
      000000B8H.4 SFRSYM    DATA     BIT       USB
      000000F8H.5 SFRSYM    DATA     BIT       WEN
      000000F8H   SFRSYM    DATA     BYTE      FSR
      000000B8H.2 SFRSYM    DATA     BIT       SPI
      000000F8H.1 SFRSYM    DATA     BIT       RDEND
      000000C9H   SFRSYM    DATA     BYTE      P0EXP
      0000008EH   SFRSYM    DATA     BYTE      CKCON
      000000E8H   SFRSYM    DATA     BYTE      AESCS
      000000F8H.3 SFRSYM    DATA     BIT       INFEN
      000000F8H.7 SFRSYM    DATA     BIT       MCDIS
      000000C0H.5 SFRSYM    DATA     BIT       WUF
      000000E5H   SFRSYM    DATA     BYTE      RFDAT
      000000EFH   SFRSYM    DATA     BYTE      ARCON
      000000D0H.5 SFRSYM    DATA     BIT       F0
      000000D0H.1 SFRSYM    DATA     BIT       F1
      000000F8H.6 SFRSYM    DATA     BIT       STP
      000000F2H   SFRSYM    DATA     BYTE      AESIV
      00000090H   SFRSYM    DATA     BYTE      RFCON
      000000D0H   SFRSYM    DATA     BYTE      PSW
      000000B2H   SFRSYM    DATA     BYTE      SMDAT
      000000ADH   SFRSYM    DATA     BYTE      REGXC
      00000098H.2 SFRSYM    DATA     BIT       RB80
      000000E6H   SFRSYM    DATA     BYTE      RFCTL
      000000D8H   SFRSYM    DATA     BYTE      WDCON
      000000C0H   SFRSYM    DATA     BYTE      IRCON
      00000090H.1 SFRSYM    DATA     BIT       RFCSN

      0100000BH   BLOCK     CODE     ---       LVL=0
      0100000BH   LINE      ---      ---       #21
      0100000BH   LINE      ---      ---       #23
      0100000EH   LINE      ---      ---       #24
      01000011H   LINE      ---      ---       #25
      ---         BLOCKEND  ---      ---       LVL=0

      01000012H   BLOCK     CODE     ---       LVL=0
      01000012H   LINE      ---      ---       #27
      01000012H   LINE      ---      ---       #29
      01000017H   LINE      ---      ---       #30
      ---         BLOCKEND  ---      ---       LVL=0

      01000018H   BLOCK     CODE     ---       LVL=0
      01000018H   LINE      ---      ---       #32
      01000018H   LINE      ---      ---       #34
      0100001DH   LINE      ---      ---       #35
      ---         BLOCKEND  ---      ---       LVL=0

      0100002EH   BLOCK     CODE     ---       LVL=0
LX51 LINKER/LOCATER V4.66.41.0                                                        02/08/2016  23:35:20  PAGE 24


      0100002EH   LINE      ---      ---       #37
      0100003BH   LINE      ---      ---       #39
      01000040H   LINE      ---      ---       #41
      01000042H   LINE      ---      ---       #42
      02000000H   SYMBOL    XDATA    ---       adr_ptr
      02000003H   SYMBOL    XDATA    ---       size
      ---         BLOCKEND  ---      ---       LVL=0
      02000000H   SYMBOL    XDATA    ---       adr_ptr
      02000003H   SYMBOL    XDATA    ---       size

      010008A6H   BLOCK     CODE     ---       LVL=0
      010008A6H   LINE      ---      ---       #62
      010008BAH   LINE      ---      ---       #64
      00000001H   SYMBOL    XSTK     ---       req
      00000004H   SYMBOL    XSTK     ---       data_ptr
      00000007H   SYMBOL    XSTK     ---       size
      010008BAH   BLOCK     CODE     NEAR LAB  LVL=1
      010008BAH   LINE      ---      ---       #67
      010008BCH   LINE      ---      ---       #68
      01000921H   LINE      ---      ---       #70
      0100092BH   LINE      ---      ---       #71
      0100092BH   LINE      ---      ---       #72
      0100092DH   LINE      ---      ---       #73
      00000000H   SYMBOL    XSTK     BYTE      retval
      ---         BLOCKEND  CODE     ---       LVL=1
      ---         BLOCKEND  CODE     ---       LVL=0

      01000C8DH   BLOCK     CODE     ---       LVL=0
      01000C8DH   LINE      ---      ---       #77
      01000C9BH   LINE      ---      ---       #78
      0200806EH   SYMBOL    XDATA    BYTE      ep_in
      0200806FH   SYMBOL    XDATA    ---       dat
      02008072H   SYMBOL    XDATA    BYTE      len
      01000C9BH   BLOCK     CODE     NEAR LAB  LVL=1
      01000C9BH   LINE      ---      ---       #79
      01000CA0H   LINE      ---      ---       #80
      01000CA5H   LINE      ---      ---       #81
      01000CAEH   LINE      ---      ---       #82
      01000CAEH   LINE      ---      ---       #83
      01000CCFH   LINE      ---      ---       #84
      01000CCFH   LINE      ---      ---       #85
      01000CF3H   LINE      ---      ---       #86
      02008073H   SYMBOL    XDATA    BYTE      res
      ---         BLOCKEND  CODE     ---       LVL=1
      ---         BLOCKEND  CODE     ---       LVL=0

      01000D97H   BLOCK     CODE     ---       LVL=0
      01000D97H   LINE      ---      ---       #89
      01000D97H   LINE      ---      ---       #90
      01000D97H   LINE      ---      ---       #91
      01000D9DH   LINE      ---      ---       #92
      01000D9DH   LINE      ---      ---       #93
      00000007H   SYMBOL    DATA     BYTE      ep_in
      00000001H   SYMBOL    DATA     ---       dat
      0200806DH   SYMBOL    XDATA    BYTE      len
      ---         BLOCKEND  ---      ---       LVL=0
      00000007H   SYMBOL    DATA     BYTE      ep_in
      00000001H   SYMBOL    DATA     ---       dat

      01000F22H   BLOCK     CODE     ---       LVL=0
      01000F22H   LINE      ---      ---       #103
      01000F22H   LINE      ---      ---       #104
      01000F22H   LINE      ---      ---       #105
      01000F53H   LINE      ---      ---       #106
      01000F60H   LINE      ---      ---       #108
LX51 LINKER/LOCATER V4.66.41.0                                                        02/08/2016  23:35:20  PAGE 25


      01000F65H   LINE      ---      ---       #109
      01000F69H   LINE      ---      ---       #110
      ---         BLOCKEND  ---      ---       LVL=0

      01000DA7H   BLOCK     CODE     ---       LVL=0
      01000DA7H   LINE      ---      ---       #114
      01000DA7H   LINE      ---      ---       #115
      01000DA7H   BLOCK     CODE     NEAR LAB  LVL=1
      01000DA7H   LINE      ---      ---       #118
      01000DA9H   LINE      ---      ---       #120
      01000DABH   LINE      ---      ---       #122
      01000DADH   LINE      ---      ---       #124
      01000DB0H   LINE      ---      ---       #126
      01000DB2H   LINE      ---      ---       #127
      01000DB4H   LINE      ---      ---       #129
      01000DBBH   LINE      ---      ---       #130
      01000DCBH   LINE      ---      ---       #131
      01000DCDH   LINE      ---      ---       #134
      01000DD0H   LINE      ---      ---       #136
      01000DD0H   LINE      ---      ---       #137
      01000DD0H   LINE      ---      ---       #154
      0200804EH   SYMBOL    XDATA    ---       payload
      ---         BLOCKEND  CODE     ---       LVL=1
      ---         BLOCKEND  CODE     ---       LVL=0

      ---         MODULE    ---      ---       USB_DESC
      01000850H   PUBLIC    CONST    ---       g_usb_string_desc
      01000846H   PUBLIC    CONST    ---       g_usb_string_desc_3
      0100082EH   PUBLIC    CONST    ---       g_usb_string_desc_2
      01000820H   PUBLIC    CONST    ---       g_usb_string_desc_1
      010007F7H   PUBLIC    CONST    ---       g_usb_conf_desc
      010007E5H   PUBLIC    CONST    ---       g_usb_dev_desc

      ---         MODULE    ---      ---       USB_HID_DESC
      0100087AH   PUBLIC    CONST    ---       g_usb_hid_hids
      01000859H   PUBLIC    CONST    ---       g_usb_hid_report_1

      ---         MODULE    ---      ---       GZLL_MCU
      01000FF7H   PUBLIC    CODE     ---       _gzll_set_timer_period
      01000FC2H   PUBLIC    CODE     ---       mcu_init
      00000098H.3 SFRSYM    DATA     BIT       TB80
      000000C8H   SFRSYM    DATA     BIT       T2I0
      000000C3H   SFRSYM    DATA     BYTE      CCH1
      000000ABH   SFRSYM    DATA     BYTE      REGXH
      00000080H   SFRSYM    DATA     BYTE      P0
      000000C8H.1 SFRSYM    DATA     BIT       T2I1
      000000C5H   SFRSYM    DATA     BYTE      CCH2
      000000C7H   SFRSYM    DATA     BYTE      CCH3
      00000098H.5 SFRSYM    DATA     BIT       SM20
      000000D0H.6 SFRSYM    DATA     BIT       AC
      000000C2H   SFRSYM    DATA     BYTE      CCL1
      000000ACH   SFRSYM    DATA     BYTE      REGXL
      000000C4H   SFRSYM    DATA     BYTE      CCL2
      000000B3H   SFRSYM    DATA     BYTE      SMCTL
      000000D8H.7 SFRSYM    DATA     BIT       BD
      000000B8H   SFRSYM    DATA     BIT       RFSPI
      000000A8H.7 SFRSYM    DATA     BIT       EA
      000000CCH   SFRSYM    DATA     WORD      T2
      000000C6H   SFRSYM    DATA     BYTE      CCL3
      000000C8H.3 SFRSYM    DATA     BIT       T2R0
      000000C8H.4 SFRSYM    DATA     BIT       T2R1
      000000A8H   SFRSYM    DATA     BYTE      IEN0
      000000B8H   SFRSYM    DATA     BYTE      IEN1
      00000085H   SFRSYM    DATA     BYTE      DPH1
      0000009AH   SFRSYM    DATA     BYTE      IEN2
LX51 LINKER/LOCATER V4.66.41.0                                                        02/08/2016  23:35:20  PAGE 26


      00000084H   SFRSYM    DATA     BYTE      DPL1
      000000C8H.5 SFRSYM    DATA     BIT       I2FR
      000000C8H.6 SFRSYM    DATA     BIT       I3FR
      000000E8H   SFRSYM    DATA     BIT       GO
      000000C0H.7 SFRSYM    DATA     BIT       EXF2
      00000098H.4 SFRSYM    DATA     BIT       REN0
      000000F5H   SFRSYM    DATA     BYTE      AESIA1
      000000C8H.2 SFRSYM    DATA     BIT       T2CM
      000000F6H   SFRSYM    DATA     BYTE      AESIA2
      000000B8H.1 SFRSYM    DATA     BIT       RF
      000000B8H.3 SFRSYM    DATA     BIT       USBWU
      000000B8H.5 SFRSYM    DATA     BIT       WUIRQ
      000000C1H   SFRSYM    DATA     BYTE      CCEN
      000000D0H.7 SFRSYM    DATA     BIT       CY
      000000F3H   SFRSYM    DATA     BYTE      AESD
      000000E8H.1 SFRSYM    DATA     BIT       DECR
      00000090H   SFRSYM    DATA     BIT       RFCE
      000000CBH   SFRSYM    DATA     BYTE      CRCH
      00000081H   SFRSYM    DATA     BYTE      SP
      000000A0H.5 SFRSYM    DATA     BIT       SUSPEND
      000000A0H.7 SFRSYM    DATA     BIT       SWRST
      000000D0H.2 SFRSYM    DATA     BIT       OV
      000000CAH   SFRSYM    DATA     BYTE      CRCL
      000000C8H.7 SFRSYM    DATA     BIT       T2PS
      000000A0H.6 SFRSYM    DATA     BIT       WU
      000000F9H   SFRSYM    DATA     BYTE      FPCR
      00000080H   SFRSYM    DATA     BIT       P00
      000000BAH   SFRSYM    DATA     BYTE      S0RELH
      00000080H.1 SFRSYM    DATA     BIT       P01
      000000C0H.4 SFRSYM    DATA     BIT       USBF
      00000087H   SFRSYM    DATA     BYTE      PCON
      00000080H.3 SFRSYM    DATA     BIT       MCSN
      00000080H.2 SFRSYM    DATA     BIT       P02
      00000080H.3 SFRSYM    DATA     BIT       P03
      000000C0H.2 SFRSYM    DATA     BIT       SPIF
      000000F8H.2 SFRSYM    DATA     BIT       RDIS
      00000080H.4 SFRSYM    DATA     BIT       P04
      000000AAH   SFRSYM    DATA     BYTE      S0RELL
      00000080H.5 SFRSYM    DATA     BIT       P05
      00000089H   SFRSYM    DATA     BYTE      TMOD
      00000088H   SFRSYM    DATA     BYTE      TCON
      000000C2H   SFRSYM    DATA     WORD      CC1
      00000080H.3 SFRSYM    DATA     BIT       SCSN
      000000C4H   SFRSYM    DATA     WORD      CC2
      000000C6H   SFRSYM    DATA     WORD      CC3
      00000090H.2 SFRSYM    DATA     BIT       RFCKEN
      000000F8H   SFRSYM    DATA     BIT       WPEN
      000000F1H   SFRSYM    DATA     BYTE      AESKIN
      00000088H.1 SFRSYM    DATA     BIT       IE0
      000000F8H.4 SFRSYM    DATA     BIT       RDYN
      00000088H.3 SFRSYM    DATA     BIT       IE1
      000000A3H   SFRSYM    DATA     BYTE      CLKCTL
      000000F0H   SFRSYM    DATA     BYTE      B
      000000E9H   SFRSYM    DATA     BYTE      MD0
      000000EAH   SFRSYM    DATA     BYTE      MD1
      000000BDH   SFRSYM    DATA     BYTE      SSDATA
      000000EBH   SFRSYM    DATA     BYTE      MD2
      000000ECH   SFRSYM    DATA     BYTE      MD3
      000000EDH   SFRSYM    DATA     BYTE      MD4
      000000EEH   SFRSYM    DATA     BYTE      MD5
      000000E0H   SFRSYM    DATA     BYTE      ACC
      000000B5H   SFRSYM    DATA     BYTE      TICKDV
      000000A8H.4 SFRSYM    DATA     BIT       ES0
      000000A8H.1 SFRSYM    DATA     BIT       ET0
      000000A9H   SFRSYM    DATA     BYTE      IP0
LX51 LINKER/LOCATER V4.66.41.0                                                        02/08/2016  23:35:20  PAGE 27


      000000A8H.3 SFRSYM    DATA     BIT       ET1
      00000088H.5 SFRSYM    DATA     BIT       TF0
      000000B9H   SFRSYM    DATA     BYTE      IP1
      000000A8H.5 SFRSYM    DATA     BIT       ET2
      00000098H   SFRSYM    DATA     BIT       RI0
      00000088H.7 SFRSYM    DATA     BIT       TF1
      000000C0H   SFRSYM    DATA     BIT       RFSPIF
      000000C0H.6 SFRSYM    DATA     BIT       TF2
      000000A0H   SFRSYM    DATA     BYTE      USBCON
      0000008CH   SFRSYM    DATA     BYTE      TH0
      000000A8H   SFRSYM    DATA     BIT       EX0
      00000098H.1 SFRSYM    DATA     BIT       TI0
      00000088H   SFRSYM    DATA     BIT       IT0
      0000008DH   SFRSYM    DATA     BYTE      TH1
      000000A8H.2 SFRSYM    DATA     BIT       EX1
      00000088H.2 SFRSYM    DATA     BIT       IT1
      000000CDH   SFRSYM    DATA     BYTE      TH2
      000000BCH   SFRSYM    DATA     BYTE      SSCONF
      000000A0H   SFRSYM    DATA     BIT       IV0
      000000D0H   SFRSYM    DATA     BIT       P
      000000A0H.1 SFRSYM    DATA     BIT       IV1
      00000098H.7 SFRSYM    DATA     BIT       SM0
      0000008AH   SFRSYM    DATA     BYTE      TL0
      000000A0H.2 SFRSYM    DATA     BIT       IV2
      00000098H.6 SFRSYM    DATA     BIT       SM1
      0000008BH   SFRSYM    DATA     BYTE      TL1
      000000A0H.3 SFRSYM    DATA     BIT       IV3
      000000CCH   SFRSYM    DATA     BYTE      TL2
      000000A0H.4 SFRSYM    DATA     BIT       IV4
      000000A5H   SFRSYM    DATA     BYTE      WUCONF
      000000D0H.3 SFRSYM    DATA     BIT       RS0
      00000088H.4 SFRSYM    DATA     BIT       TR0
      000000D0H.4 SFRSYM    DATA     BIT       RS1
      00000088H.6 SFRSYM    DATA     BIT       TR1
      000000CAH   SFRSYM    DATA     WORD      CRC
      000000A6H   SFRSYM    DATA     BYTE      INTEXP
      000000FAH   SFRSYM    DATA     BYTE      FCR
      000000D9H   SFRSYM    DATA     BYTE      USBSLP
      00000083H   SFRSYM    DATA     BYTE      DPH
      000000C0H.1 SFRSYM    DATA     BIT       RFF
      000000C0H.3 SFRSYM    DATA     BIT       USBWUF
      00000094H   SFRSYM    DATA     BYTE      P0DIR
      00000082H   SFRSYM    DATA     BYTE      DPL
      00000099H   SFRSYM    DATA     BYTE      S0BUF
      00000095H   SFRSYM    DATA     BYTE      P0ALT
      000000B8H.7 SFRSYM    DATA     BIT       EXEN2
      000000BEH   SFRSYM    DATA     BYTE      SSSTAT
      000000A4H   SFRSYM    DATA     BYTE      PWRDWN
      00000098H   SFRSYM    DATA     BYTE      S0CON
      000000B1H   SFRSYM    DATA     BYTE      RSTRES
      000000C8H   SFRSYM    DATA     BYTE      T2CON
      00000092H   SFRSYM    DATA     BYTE      DPS
      000000B8H.4 SFRSYM    DATA     BIT       USB
      000000F8H.5 SFRSYM    DATA     BIT       WEN
      000000F8H   SFRSYM    DATA     BYTE      FSR
      000000B8H.2 SFRSYM    DATA     BIT       SPI
      000000F8H.1 SFRSYM    DATA     BIT       RDEND
      000000C9H   SFRSYM    DATA     BYTE      P0EXP
      0000008EH   SFRSYM    DATA     BYTE      CKCON
      000000E8H   SFRSYM    DATA     BYTE      AESCS
      000000F8H.3 SFRSYM    DATA     BIT       INFEN
      000000F8H.7 SFRSYM    DATA     BIT       MCDIS
      000000C0H.5 SFRSYM    DATA     BIT       WUF
      000000E5H   SFRSYM    DATA     BYTE      RFDAT
      000000EFH   SFRSYM    DATA     BYTE      ARCON
LX51 LINKER/LOCATER V4.66.41.0                                                        02/08/2016  23:35:20  PAGE 28


      000000D0H.5 SFRSYM    DATA     BIT       F0
      000000D0H.1 SFRSYM    DATA     BIT       F1
      000000F8H.6 SFRSYM    DATA     BIT       STP
      000000F2H   SFRSYM    DATA     BYTE      AESIV
      00000090H   SFRSYM    DATA     BYTE      RFCON
      000000D0H   SFRSYM    DATA     BYTE      PSW
      000000B2H   SFRSYM    DATA     BYTE      SMDAT
      000000ADH   SFRSYM    DATA     BYTE      REGXC
      00000098H.2 SFRSYM    DATA     BIT       RB80
      000000E6H   SFRSYM    DATA     BYTE      RFCTL
      000000D8H   SFRSYM    DATA     BYTE      WDCON
      000000C0H   SFRSYM    DATA     BYTE      IRCON
      00000090H.1 SFRSYM    DATA     BIT       RFCSN

      01000FC2H   BLOCK     CODE     ---       LVL=0
      01000FC2H   LINE      ---      ---       #21
      01000FC2H   LINE      ---      ---       #22
      01000FC2H   LINE      ---      ---       #23
      01000FC4H   LINE      ---      ---       #25
      01000FC6H   LINE      ---      ---       #26
      01000FC9H   LINE      ---      ---       #28
      01000FCCH   LINE      ---      ---       #29
      01000FCEH   LINE      ---      ---       #30
      ---         BLOCKEND  ---      ---       LVL=0

      01000FF7H   BLOCK     CODE     ---       LVL=0
      01000FF7H   LINE      ---      ---       #32
      01000FF7H   LINE      ---      ---       #33
      01000FF7H   LINE      ---      ---       #34
      0100102DH   LINE      ---      ---       #35
      00000006H   SYMBOL    DATA     WORD      period
      ---         BLOCKEND  ---      ---       LVL=0

      ---         MODULE    ---      ---       GZLL_RADIO_ISR
      0100102EH   PUBLIC    CODE     ---       nrf_isr
      00000098H.3 SFRSYM    DATA     BIT       TB80
      000000C8H   SFRSYM    DATA     BIT       T2I0
      000000C3H   SFRSYM    DATA     BYTE      CCH1
      000000ABH   SFRSYM    DATA     BYTE      REGXH
      00000080H   SFRSYM    DATA     BYTE      P0
      000000C8H.1 SFRSYM    DATA     BIT       T2I1
      000000C5H   SFRSYM    DATA     BYTE      CCH2
      000000C7H   SFRSYM    DATA     BYTE      CCH3
      00000098H.5 SFRSYM    DATA     BIT       SM20
      000000D0H.6 SFRSYM    DATA     BIT       AC
      000000C2H   SFRSYM    DATA     BYTE      CCL1
      000000ACH   SFRSYM    DATA     BYTE      REGXL
      000000C4H   SFRSYM    DATA     BYTE      CCL2
      000000B3H   SFRSYM    DATA     BYTE      SMCTL
      000000D8H.7 SFRSYM    DATA     BIT       BD
      000000B8H   SFRSYM    DATA     BIT       RFSPI
      000000A8H.7 SFRSYM    DATA     BIT       EA
      000000CCH   SFRSYM    DATA     WORD      T2
      000000C6H   SFRSYM    DATA     BYTE      CCL3
      000000C8H.3 SFRSYM    DATA     BIT       T2R0
      000000C8H.4 SFRSYM    DATA     BIT       T2R1
      000000A8H   SFRSYM    DATA     BYTE      IEN0
      000000B8H   SFRSYM    DATA     BYTE      IEN1
      00000085H   SFRSYM    DATA     BYTE      DPH1
      0000009AH   SFRSYM    DATA     BYTE      IEN2
      00000084H   SFRSYM    DATA     BYTE      DPL1
      000000C8H.5 SFRSYM    DATA     BIT       I2FR
      000000C8H.6 SFRSYM    DATA     BIT       I3FR
      000000E8H   SFRSYM    DATA     BIT       GO
      000000C0H.7 SFRSYM    DATA     BIT       EXF2
LX51 LINKER/LOCATER V4.66.41.0                                                        02/08/2016  23:35:20  PAGE 29


      00000098H.4 SFRSYM    DATA     BIT       REN0
      000000F5H   SFRSYM    DATA     BYTE      AESIA1
      000000C8H.2 SFRSYM    DATA     BIT       T2CM
      000000F6H   SFRSYM    DATA     BYTE      AESIA2
      000000B8H.1 SFRSYM    DATA     BIT       RF
      000000B8H.3 SFRSYM    DATA     BIT       USBWU
      000000B8H.5 SFRSYM    DATA     BIT       WUIRQ
      000000C1H   SFRSYM    DATA     BYTE      CCEN
      000000D0H.7 SFRSYM    DATA     BIT       CY
      000000F3H   SFRSYM    DATA     BYTE      AESD
      000000E8H.1 SFRSYM    DATA     BIT       DECR
      00000090H   SFRSYM    DATA     BIT       RFCE
      000000CBH   SFRSYM    DATA     BYTE      CRCH
      00000081H   SFRSYM    DATA     BYTE      SP
      000000A0H.5 SFRSYM    DATA     BIT       SUSPEND
      000000A0H.7 SFRSYM    DATA     BIT       SWRST
      000000D0H.2 SFRSYM    DATA     BIT       OV
      000000CAH   SFRSYM    DATA     BYTE      CRCL
      000000C8H.7 SFRSYM    DATA     BIT       T2PS
      000000A0H.6 SFRSYM    DATA     BIT       WU
      000000F9H   SFRSYM    DATA     BYTE      FPCR
      00000080H   SFRSYM    DATA     BIT       P00
      000000BAH   SFRSYM    DATA     BYTE      S0RELH
      00000080H.1 SFRSYM    DATA     BIT       P01
      000000C0H.4 SFRSYM    DATA     BIT       USBF
      00000087H   SFRSYM    DATA     BYTE      PCON
      00000080H.3 SFRSYM    DATA     BIT       MCSN
      00000080H.2 SFRSYM    DATA     BIT       P02
      00000080H.3 SFRSYM    DATA     BIT       P03
      000000C0H.2 SFRSYM    DATA     BIT       SPIF
      000000F8H.2 SFRSYM    DATA     BIT       RDIS
      00000080H.4 SFRSYM    DATA     BIT       P04
      000000AAH   SFRSYM    DATA     BYTE      S0RELL
      00000080H.5 SFRSYM    DATA     BIT       P05
      00000089H   SFRSYM    DATA     BYTE      TMOD
      00000088H   SFRSYM    DATA     BYTE      TCON
      000000C2H   SFRSYM    DATA     WORD      CC1
      00000080H.3 SFRSYM    DATA     BIT       SCSN
      000000C4H   SFRSYM    DATA     WORD      CC2
      000000C6H   SFRSYM    DATA     WORD      CC3
      00000090H.2 SFRSYM    DATA     BIT       RFCKEN
      000000F8H   SFRSYM    DATA     BIT       WPEN
      000000F1H   SFRSYM    DATA     BYTE      AESKIN
      00000088H.1 SFRSYM    DATA     BIT       IE0
      000000F8H.4 SFRSYM    DATA     BIT       RDYN
      00000088H.3 SFRSYM    DATA     BIT       IE1
      000000A3H   SFRSYM    DATA     BYTE      CLKCTL
      000000F0H   SFRSYM    DATA     BYTE      B
      000000E9H   SFRSYM    DATA     BYTE      MD0
      000000EAH   SFRSYM    DATA     BYTE      MD1
      000000BDH   SFRSYM    DATA     BYTE      SSDATA
      000000EBH   SFRSYM    DATA     BYTE      MD2
      000000ECH   SFRSYM    DATA     BYTE      MD3
      000000EDH   SFRSYM    DATA     BYTE      MD4
      000000EEH   SFRSYM    DATA     BYTE      MD5
      000000E0H   SFRSYM    DATA     BYTE      ACC
      000000B5H   SFRSYM    DATA     BYTE      TICKDV
      000000A8H.4 SFRSYM    DATA     BIT       ES0
      000000A8H.1 SFRSYM    DATA     BIT       ET0
      000000A9H   SFRSYM    DATA     BYTE      IP0
      000000A8H.3 SFRSYM    DATA     BIT       ET1
      00000088H.5 SFRSYM    DATA     BIT       TF0
      000000B9H   SFRSYM    DATA     BYTE      IP1
      000000A8H.5 SFRSYM    DATA     BIT       ET2
      00000098H   SFRSYM    DATA     BIT       RI0
LX51 LINKER/LOCATER V4.66.41.0                                                        02/08/2016  23:35:20  PAGE 30


      00000088H.7 SFRSYM    DATA     BIT       TF1
      000000C0H   SFRSYM    DATA     BIT       RFSPIF
      000000C0H.6 SFRSYM    DATA     BIT       TF2
      000000A0H   SFRSYM    DATA     BYTE      USBCON
      0000008CH   SFRSYM    DATA     BYTE      TH0
      000000A8H   SFRSYM    DATA     BIT       EX0
      00000098H.1 SFRSYM    DATA     BIT       TI0
      00000088H   SFRSYM    DATA     BIT       IT0
      0000008DH   SFRSYM    DATA     BYTE      TH1
      000000A8H.2 SFRSYM    DATA     BIT       EX1
      00000088H.2 SFRSYM    DATA     BIT       IT1
      000000CDH   SFRSYM    DATA     BYTE      TH2
      000000BCH   SFRSYM    DATA     BYTE      SSCONF
      000000A0H   SFRSYM    DATA     BIT       IV0
      000000D0H   SFRSYM    DATA     BIT       P
      000000A0H.1 SFRSYM    DATA     BIT       IV1
      00000098H.7 SFRSYM    DATA     BIT       SM0
      0000008AH   SFRSYM    DATA     BYTE      TL0
      000000A0H.2 SFRSYM    DATA     BIT       IV2
      00000098H.6 SFRSYM    DATA     BIT       SM1
      0000008BH   SFRSYM    DATA     BYTE      TL1
      000000A0H.3 SFRSYM    DATA     BIT       IV3
      000000CCH   SFRSYM    DATA     BYTE      TL2
      000000A0H.4 SFRSYM    DATA     BIT       IV4
      000000A5H   SFRSYM    DATA     BYTE      WUCONF
      000000D0H.3 SFRSYM    DATA     BIT       RS0
      00000088H.4 SFRSYM    DATA     BIT       TR0
      000000D0H.4 SFRSYM    DATA     BIT       RS1
      00000088H.6 SFRSYM    DATA     BIT       TR1
      000000CAH   SFRSYM    DATA     WORD      CRC
      000000A6H   SFRSYM    DATA     BYTE      INTEXP
      000000FAH   SFRSYM    DATA     BYTE      FCR
      000000D9H   SFRSYM    DATA     BYTE      USBSLP
      00000083H   SFRSYM    DATA     BYTE      DPH
      000000C0H.1 SFRSYM    DATA     BIT       RFF
      000000C0H.3 SFRSYM    DATA     BIT       USBWUF
      00000094H   SFRSYM    DATA     BYTE      P0DIR
      00000082H   SFRSYM    DATA     BYTE      DPL
      00000099H   SFRSYM    DATA     BYTE      S0BUF
      00000095H   SFRSYM    DATA     BYTE      P0ALT
      000000B8H.7 SFRSYM    DATA     BIT       EXEN2
      000000BEH   SFRSYM    DATA     BYTE      SSSTAT
      000000A4H   SFRSYM    DATA     BYTE      PWRDWN
      00000098H   SFRSYM    DATA     BYTE      S0CON
      000000B1H   SFRSYM    DATA     BYTE      RSTRES
      000000C8H   SFRSYM    DATA     BYTE      T2CON
      00000092H   SFRSYM    DATA     BYTE      DPS
      000000B8H.4 SFRSYM    DATA     BIT       USB
      000000F8H.5 SFRSYM    DATA     BIT       WEN
      000000F8H   SFRSYM    DATA     BYTE      FSR
      000000B8H.2 SFRSYM    DATA     BIT       SPI
      000000F8H.1 SFRSYM    DATA     BIT       RDEND
      000000C9H   SFRSYM    DATA     BYTE      P0EXP
      0000008EH   SFRSYM    DATA     BYTE      CKCON
      000000E8H   SFRSYM    DATA     BYTE      AESCS
      000000F8H.3 SFRSYM    DATA     BIT       INFEN
      000000F8H.7 SFRSYM    DATA     BIT       MCDIS
      000000C0H.5 SFRSYM    DATA     BIT       WUF
      000000E5H   SFRSYM    DATA     BYTE      RFDAT
      000000EFH   SFRSYM    DATA     BYTE      ARCON
      000000D0H.5 SFRSYM    DATA     BIT       F0
      000000D0H.1 SFRSYM    DATA     BIT       F1
      000000F8H.6 SFRSYM    DATA     BIT       STP
      000000F2H   SFRSYM    DATA     BYTE      AESIV
      00000090H   SFRSYM    DATA     BYTE      RFCON
LX51 LINKER/LOCATER V4.66.41.0                                                        02/08/2016  23:35:20  PAGE 31


      000000D0H   SFRSYM    DATA     BYTE      PSW
      000000B2H   SFRSYM    DATA     BYTE      SMDAT
      000000ADH   SFRSYM    DATA     BYTE      REGXC
      00000098H.2 SFRSYM    DATA     BIT       RB80
      000000E6H   SFRSYM    DATA     BYTE      RFCTL
      000000D8H   SFRSYM    DATA     BYTE      WDCON
      000000C0H   SFRSYM    DATA     BYTE      IRCON
      00000090H.1 SFRSYM    DATA     BIT       RFCSN

      0100102EH   BLOCK     CODE     ---       LVL=0
      0100104BH   LINE      ---      ---       #20
      0100104BH   LINE      ---      ---       #22
      0100104DH   LINE      ---      ---       #23
      ---         BLOCKEND  ---      ---       LVL=0

      ---         MODULE    ---      ---       GZLL_TIMER_ISR
      0200810FH   PUBLIC    XDATA    WORD      timer_cnt
      0100180AH   PUBLIC    CODE     ---       t2_isr
      00000098H.3 SFRSYM    DATA     BIT       TB80
      000000C8H   SFRSYM    DATA     BIT       T2I0
      000000C3H   SFRSYM    DATA     BYTE      CCH1
      000000ABH   SFRSYM    DATA     BYTE      REGXH
      00000080H   SFRSYM    DATA     BYTE      P0
      000000C8H.1 SFRSYM    DATA     BIT       T2I1
      000000C5H   SFRSYM    DATA     BYTE      CCH2
      000000C7H   SFRSYM    DATA     BYTE      CCH3
      00000098H.5 SFRSYM    DATA     BIT       SM20
      000000D0H.6 SFRSYM    DATA     BIT       AC
      000000C2H   SFRSYM    DATA     BYTE      CCL1
      000000ACH   SFRSYM    DATA     BYTE      REGXL
      000000C4H   SFRSYM    DATA     BYTE      CCL2
      000000B3H   SFRSYM    DATA     BYTE      SMCTL
      000000D8H.7 SFRSYM    DATA     BIT       BD
      000000B8H   SFRSYM    DATA     BIT       RFSPI
      000000A8H.7 SFRSYM    DATA     BIT       EA
      000000CCH   SFRSYM    DATA     WORD      T2
      000000C6H   SFRSYM    DATA     BYTE      CCL3
      000000C8H.3 SFRSYM    DATA     BIT       T2R0
      000000C8H.4 SFRSYM    DATA     BIT       T2R1
      000000A8H   SFRSYM    DATA     BYTE      IEN0
      000000B8H   SFRSYM    DATA     BYTE      IEN1
      00000085H   SFRSYM    DATA     BYTE      DPH1
      0000009AH   SFRSYM    DATA     BYTE      IEN2
      00000084H   SFRSYM    DATA     BYTE      DPL1
      000000C8H.5 SFRSYM    DATA     BIT       I2FR
      000000C8H.6 SFRSYM    DATA     BIT       I3FR
      000000E8H   SFRSYM    DATA     BIT       GO
      000000C0H.7 SFRSYM    DATA     BIT       EXF2
      00000098H.4 SFRSYM    DATA     BIT       REN0
      000000F5H   SFRSYM    DATA     BYTE      AESIA1
      000000C8H.2 SFRSYM    DATA     BIT       T2CM
      000000F6H   SFRSYM    DATA     BYTE      AESIA2
      000000B8H.1 SFRSYM    DATA     BIT       RF
      000000B8H.3 SFRSYM    DATA     BIT       USBWU
      000000B8H.5 SFRSYM    DATA     BIT       WUIRQ
      000000C1H   SFRSYM    DATA     BYTE      CCEN
      000000D0H.7 SFRSYM    DATA     BIT       CY
      000000F3H   SFRSYM    DATA     BYTE      AESD
      000000E8H.1 SFRSYM    DATA     BIT       DECR
      00000090H   SFRSYM    DATA     BIT       RFCE
      000000CBH   SFRSYM    DATA     BYTE      CRCH
      00000081H   SFRSYM    DATA     BYTE      SP
      000000A0H.5 SFRSYM    DATA     BIT       SUSPEND
      000000A0H.7 SFRSYM    DATA     BIT       SWRST
      000000D0H.2 SFRSYM    DATA     BIT       OV
LX51 LINKER/LOCATER V4.66.41.0                                                        02/08/2016  23:35:20  PAGE 32


      000000CAH   SFRSYM    DATA     BYTE      CRCL
      000000C8H.7 SFRSYM    DATA     BIT       T2PS
      000000A0H.6 SFRSYM    DATA     BIT       WU
      000000F9H   SFRSYM    DATA     BYTE      FPCR
      00000080H   SFRSYM    DATA     BIT       P00
      000000BAH   SFRSYM    DATA     BYTE      S0RELH
      00000080H.1 SFRSYM    DATA     BIT       P01
      000000C0H.4 SFRSYM    DATA     BIT       USBF
      00000087H   SFRSYM    DATA     BYTE      PCON
      00000080H.3 SFRSYM    DATA     BIT       MCSN
      00000080H.2 SFRSYM    DATA     BIT       P02
      00000080H.3 SFRSYM    DATA     BIT       P03
      000000C0H.2 SFRSYM    DATA     BIT       SPIF
      000000F8H.2 SFRSYM    DATA     BIT       RDIS
      00000080H.4 SFRSYM    DATA     BIT       P04
      000000AAH   SFRSYM    DATA     BYTE      S0RELL
      00000080H.5 SFRSYM    DATA     BIT       P05
      00000089H   SFRSYM    DATA     BYTE      TMOD
      00000088H   SFRSYM    DATA     BYTE      TCON
      000000C2H   SFRSYM    DATA     WORD      CC1
      00000080H.3 SFRSYM    DATA     BIT       SCSN
      000000C4H   SFRSYM    DATA     WORD      CC2
      000000C6H   SFRSYM    DATA     WORD      CC3
      00000090H.2 SFRSYM    DATA     BIT       RFCKEN
      000000F8H   SFRSYM    DATA     BIT       WPEN
      000000F1H   SFRSYM    DATA     BYTE      AESKIN
      00000088H.1 SFRSYM    DATA     BIT       IE0
      000000F8H.4 SFRSYM    DATA     BIT       RDYN
      00000088H.3 SFRSYM    DATA     BIT       IE1
      000000A3H   SFRSYM    DATA     BYTE      CLKCTL
      000000F0H   SFRSYM    DATA     BYTE      B
      000000E9H   SFRSYM    DATA     BYTE      MD0
      000000EAH   SFRSYM    DATA     BYTE      MD1
      000000BDH   SFRSYM    DATA     BYTE      SSDATA
      000000EBH   SFRSYM    DATA     BYTE      MD2
      000000ECH   SFRSYM    DATA     BYTE      MD3
      000000EDH   SFRSYM    DATA     BYTE      MD4
      000000EEH   SFRSYM    DATA     BYTE      MD5
      000000E0H   SFRSYM    DATA     BYTE      ACC
      000000B5H   SFRSYM    DATA     BYTE      TICKDV
      000000A8H.4 SFRSYM    DATA     BIT       ES0
      000000A8H.1 SFRSYM    DATA     BIT       ET0
      000000A9H   SFRSYM    DATA     BYTE      IP0
      000000A8H.3 SFRSYM    DATA     BIT       ET1
      00000088H.5 SFRSYM    DATA     BIT       TF0
      000000B9H   SFRSYM    DATA     BYTE      IP1
      000000A8H.5 SFRSYM    DATA     BIT       ET2
      00000098H   SFRSYM    DATA     BIT       RI0
      00000088H.7 SFRSYM    DATA     BIT       TF1
      000000C0H   SFRSYM    DATA     BIT       RFSPIF
      000000C0H.6 SFRSYM    DATA     BIT       TF2
      000000A0H   SFRSYM    DATA     BYTE      USBCON
      0000008CH   SFRSYM    DATA     BYTE      TH0
      000000A8H   SFRSYM    DATA     BIT       EX0
      00000098H.1 SFRSYM    DATA     BIT       TI0
      00000088H   SFRSYM    DATA     BIT       IT0
      0000008DH   SFRSYM    DATA     BYTE      TH1
      000000A8H.2 SFRSYM    DATA     BIT       EX1
      00000088H.2 SFRSYM    DATA     BIT       IT1
      000000CDH   SFRSYM    DATA     BYTE      TH2
      000000BCH   SFRSYM    DATA     BYTE      SSCONF
      000000A0H   SFRSYM    DATA     BIT       IV0
      000000D0H   SFRSYM    DATA     BIT       P
      000000A0H.1 SFRSYM    DATA     BIT       IV1
      00000098H.7 SFRSYM    DATA     BIT       SM0
LX51 LINKER/LOCATER V4.66.41.0                                                        02/08/2016  23:35:20  PAGE 33


      0000008AH   SFRSYM    DATA     BYTE      TL0
      000000A0H.2 SFRSYM    DATA     BIT       IV2
      00000098H.6 SFRSYM    DATA     BIT       SM1
      0000008BH   SFRSYM    DATA     BYTE      TL1
      000000A0H.3 SFRSYM    DATA     BIT       IV3
      000000CCH   SFRSYM    DATA     BYTE      TL2
      000000A0H.4 SFRSYM    DATA     BIT       IV4
      000000A5H   SFRSYM    DATA     BYTE      WUCONF
      000000D0H.3 SFRSYM    DATA     BIT       RS0
      00000088H.4 SFRSYM    DATA     BIT       TR0
      000000D0H.4 SFRSYM    DATA     BIT       RS1
      00000088H.6 SFRSYM    DATA     BIT       TR1
      000000CAH   SFRSYM    DATA     WORD      CRC
      000000A6H   SFRSYM    DATA     BYTE      INTEXP
      000000FAH   SFRSYM    DATA     BYTE      FCR
      000000D9H   SFRSYM    DATA     BYTE      USBSLP
      00000083H   SFRSYM    DATA     BYTE      DPH
      000000C0H.1 SFRSYM    DATA     BIT       RFF
      000000C0H.3 SFRSYM    DATA     BIT       USBWUF
      00000094H   SFRSYM    DATA     BYTE      P0DIR
      00000082H   SFRSYM    DATA     BYTE      DPL
      00000099H   SFRSYM    DATA     BYTE      S0BUF
      00000095H   SFRSYM    DATA     BYTE      P0ALT
      000000B8H.7 SFRSYM    DATA     BIT       EXEN2
      000000BEH   SFRSYM    DATA     BYTE      SSSTAT
      000000A4H   SFRSYM    DATA     BYTE      PWRDWN
      00000098H   SFRSYM    DATA     BYTE      S0CON
      000000B1H   SFRSYM    DATA     BYTE      RSTRES
      000000C8H   SFRSYM    DATA     BYTE      T2CON
      00000092H   SFRSYM    DATA     BYTE      DPS
      000000B8H.4 SFRSYM    DATA     BIT       USB
      000000F8H.5 SFRSYM    DATA     BIT       WEN
      000000F8H   SFRSYM    DATA     BYTE      FSR
      000000B8H.2 SFRSYM    DATA     BIT       SPI
      000000F8H.1 SFRSYM    DATA     BIT       RDEND
      000000C9H   SFRSYM    DATA     BYTE      P0EXP
      0000008EH   SFRSYM    DATA     BYTE      CKCON
      000000E8H   SFRSYM    DATA     BYTE      AESCS
      000000F8H.3 SFRSYM    DATA     BIT       INFEN
      000000F8H.7 SFRSYM    DATA     BIT       MCDIS
      000000C0H.5 SFRSYM    DATA     BIT       WUF
      000000E5H   SFRSYM    DATA     BYTE      RFDAT
      000000EFH   SFRSYM    DATA     BYTE      ARCON
      000000D0H.5 SFRSYM    DATA     BIT       F0
      000000D0H.1 SFRSYM    DATA     BIT       F1
      000000F8H.6 SFRSYM    DATA     BIT       STP
      000000F2H   SFRSYM    DATA     BYTE      AESIV
      00000090H   SFRSYM    DATA     BYTE      RFCON
      000000D0H   SFRSYM    DATA     BYTE      PSW
      000000B2H   SFRSYM    DATA     BYTE      SMDAT
      000000ADH   SFRSYM    DATA     BYTE      REGXC
      00000098H.2 SFRSYM    DATA     BIT       RB80
      000000E6H   SFRSYM    DATA     BYTE      RFCTL
      000000D8H   SFRSYM    DATA     BYTE      WDCON
      000000C0H   SFRSYM    DATA     BYTE      IRCON
      00000090H.1 SFRSYM    DATA     BIT       RFCSN

      0100180AH   BLOCK     CODE     ---       LVL=0
      01001827H   LINE      ---      ---       #23
      01001827H   LINE      ---      ---       #25
      01001829H   LINE      ---      ---       #26
      0100182CH   LINE      ---      ---       #27
      0100183AH   LINE      ---      ---       #28
      ---         BLOCKEND  ---      ---       LVL=0

LX51 LINKER/LOCATER V4.66.41.0                                                        02/08/2016  23:35:20  PAGE 34


      ---         MODULE    ---      ---       GZLL
      00000021H   PUBLIC    DATA     BIT       gzll_pending_tx_start
      00000021H.4 PUBLIC    DATA     BIT       b_rfce
      00000021H.3 PUBLIC    DATA     BIT       gzll_claim_rfck_en
      00000020H.5 PUBLIC    DATA     BIT       gzll_rx_power_high_f
      00000020H.6 PUBLIC    DATA     BIT       gzll_radio_active_f
      00000021H.2 PUBLIC    DATA     BIT       gzll_timer_period_modified
      00000020H.1 PUBLIC    DATA     BIT       gzll_tx_setup_modified
      00000020H.2 PUBLIC    DATA     BIT       gzll_rx_setup_modified
      00000020H.4 PUBLIC    DATA     BIT       gzll_rx_dr
      00000020H   PUBLIC    DATA     BIT       gzll_tx_success_f
      00000021H.1 PUBLIC    DATA     BIT       gzll_pending_goto_idle
      00000020H.3 PUBLIC    DATA     BIT       gzll_sync_on
      00000020H.7 PUBLIC    DATA     BIT       gzll_power_on
      010012D9H   PUBLIC    CODE     ---       gzll_timer_isr_function
      01001068H   PUBLIC    CODE     ---       gzll_radio_isr_function
      0100188EH   PUBLIC    CODE     ---       _gzll_delay_50us
      01001770H   PUBLIC    CODE     ---       gzll_goto_idle
      01001703H   PUBLIC    CODE     ---       gzll_rx_start
      01000DD2H   PUBLIC    CODE     ---       gzll_init
      00000098H.3 SFRSYM    DATA     BIT       TB80
      000000C8H   SFRSYM    DATA     BIT       T2I0
      000000C3H   SFRSYM    DATA     BYTE      CCH1
      000000ABH   SFRSYM    DATA     BYTE      REGXH
      00000080H   SFRSYM    DATA     BYTE      P0
      000000C8H.1 SFRSYM    DATA     BIT       T2I1
      000000C5H   SFRSYM    DATA     BYTE      CCH2
      000000C7H   SFRSYM    DATA     BYTE      CCH3
      00000098H.5 SFRSYM    DATA     BIT       SM20
      000000D0H.6 SFRSYM    DATA     BIT       AC
      000000C2H   SFRSYM    DATA     BYTE      CCL1
      000000ACH   SFRSYM    DATA     BYTE      REGXL
      000000C4H   SFRSYM    DATA     BYTE      CCL2
      000000B3H   SFRSYM    DATA     BYTE      SMCTL
      000000D8H.7 SFRSYM    DATA     BIT       BD
      000000B8H   SFRSYM    DATA     BIT       RFSPI
      000000A8H.7 SFRSYM    DATA     BIT       EA
      000000CCH   SFRSYM    DATA     WORD      T2
      000000C6H   SFRSYM    DATA     BYTE      CCL3
      000000C8H.3 SFRSYM    DATA     BIT       T2R0
      000000C8H.4 SFRSYM    DATA     BIT       T2R1
      000000A8H   SFRSYM    DATA     BYTE      IEN0
      000000B8H   SFRSYM    DATA     BYTE      IEN1
      00000085H   SFRSYM    DATA     BYTE      DPH1
      0000009AH   SFRSYM    DATA     BYTE      IEN2
      00000084H   SFRSYM    DATA     BYTE      DPL1
      000000C8H.5 SFRSYM    DATA     BIT       I2FR
      000000C8H.6 SFRSYM    DATA     BIT       I3FR
      000000E8H   SFRSYM    DATA     BIT       GO
      000000C0H.7 SFRSYM    DATA     BIT       EXF2
      00000098H.4 SFRSYM    DATA     BIT       REN0
      000000F5H   SFRSYM    DATA     BYTE      AESIA1
      000000C8H.2 SFRSYM    DATA     BIT       T2CM
      000000F6H   SFRSYM    DATA     BYTE      AESIA2
      000000B8H.1 SFRSYM    DATA     BIT       RF
      000000B8H.3 SFRSYM    DATA     BIT       USBWU
      000000B8H.5 SFRSYM    DATA     BIT       WUIRQ
      000000C1H   SFRSYM    DATA     BYTE      CCEN
      000000D0H.7 SFRSYM    DATA     BIT       CY
      000000F3H   SFRSYM    DATA     BYTE      AESD
      000000E8H.1 SFRSYM    DATA     BIT       DECR
      00000090H   SFRSYM    DATA     BIT       RFCE
      000000CBH   SFRSYM    DATA     BYTE      CRCH
      00000081H   SFRSYM    DATA     BYTE      SP
      000000A0H.5 SFRSYM    DATA     BIT       SUSPEND
LX51 LINKER/LOCATER V4.66.41.0                                                        02/08/2016  23:35:20  PAGE 35


      000000A0H.7 SFRSYM    DATA     BIT       SWRST
      000000D0H.2 SFRSYM    DATA     BIT       OV
      000000CAH   SFRSYM    DATA     BYTE      CRCL
      000000C8H.7 SFRSYM    DATA     BIT       T2PS
      000000A0H.6 SFRSYM    DATA     BIT       WU
      000000F9H   SFRSYM    DATA     BYTE      FPCR
      00000080H   SFRSYM    DATA     BIT       P00
      000000BAH   SFRSYM    DATA     BYTE      S0RELH
      00000080H.1 SFRSYM    DATA     BIT       P01
      000000C0H.4 SFRSYM    DATA     BIT       USBF
      00000087H   SFRSYM    DATA     BYTE      PCON
      00000080H.3 SFRSYM    DATA     BIT       MCSN
      00000080H.2 SFRSYM    DATA     BIT       P02
      00000080H.3 SFRSYM    DATA     BIT       P03
      000000C0H.2 SFRSYM    DATA     BIT       SPIF
      000000F8H.2 SFRSYM    DATA     BIT       RDIS
      00000080H.4 SFRSYM    DATA     BIT       P04
      000000AAH   SFRSYM    DATA     BYTE      S0RELL
      00000080H.5 SFRSYM    DATA     BIT       P05
      00000089H   SFRSYM    DATA     BYTE      TMOD
      00000088H   SFRSYM    DATA     BYTE      TCON
      000000C2H   SFRSYM    DATA     WORD      CC1
      00000080H.3 SFRSYM    DATA     BIT       SCSN
      000000C4H   SFRSYM    DATA     WORD      CC2
      000000C6H   SFRSYM    DATA     WORD      CC3
      00000090H.2 SFRSYM    DATA     BIT       RFCKEN
      000000F8H   SFRSYM    DATA     BIT       WPEN
      000000F1H   SFRSYM    DATA     BYTE      AESKIN
      00000088H.1 SFRSYM    DATA     BIT       IE0
      000000F8H.4 SFRSYM    DATA     BIT       RDYN
      00000088H.3 SFRSYM    DATA     BIT       IE1
      000000A3H   SFRSYM    DATA     BYTE      CLKCTL
      000000F0H   SFRSYM    DATA     BYTE      B
      000000E9H   SFRSYM    DATA     BYTE      MD0
      000000EAH   SFRSYM    DATA     BYTE      MD1
      000000BDH   SFRSYM    DATA     BYTE      SSDATA
      000000EBH   SFRSYM    DATA     BYTE      MD2
      000000ECH   SFRSYM    DATA     BYTE      MD3
      000000EDH   SFRSYM    DATA     BYTE      MD4
      000000EEH   SFRSYM    DATA     BYTE      MD5
      000000E0H   SFRSYM    DATA     BYTE      ACC
      000000B5H   SFRSYM    DATA     BYTE      TICKDV
      000000A8H.4 SFRSYM    DATA     BIT       ES0
      000000A8H.1 SFRSYM    DATA     BIT       ET0
      000000A9H   SFRSYM    DATA     BYTE      IP0
      000000A8H.3 SFRSYM    DATA     BIT       ET1
      00000088H.5 SFRSYM    DATA     BIT       TF0
      000000B9H   SFRSYM    DATA     BYTE      IP1
      000000A8H.5 SFRSYM    DATA     BIT       ET2
      00000098H   SFRSYM    DATA     BIT       RI0
      00000088H.7 SFRSYM    DATA     BIT       TF1
      000000C0H   SFRSYM    DATA     BIT       RFSPIF
      000000C0H.6 SFRSYM    DATA     BIT       TF2
      000000A0H   SFRSYM    DATA     BYTE      USBCON
      0000008CH   SFRSYM    DATA     BYTE      TH0
      000000A8H   SFRSYM    DATA     BIT       EX0
      00000098H.1 SFRSYM    DATA     BIT       TI0
      00000088H   SFRSYM    DATA     BIT       IT0
      0000008DH   SFRSYM    DATA     BYTE      TH1
      000000A8H.2 SFRSYM    DATA     BIT       EX1
      00000088H.2 SFRSYM    DATA     BIT       IT1
      000000CDH   SFRSYM    DATA     BYTE      TH2
      000000BCH   SFRSYM    DATA     BYTE      SSCONF
      000000A0H   SFRSYM    DATA     BIT       IV0
      000000D0H   SFRSYM    DATA     BIT       P
LX51 LINKER/LOCATER V4.66.41.0                                                        02/08/2016  23:35:20  PAGE 36


      000000A0H.1 SFRSYM    DATA     BIT       IV1
      00000098H.7 SFRSYM    DATA     BIT       SM0
      0000008AH   SFRSYM    DATA     BYTE      TL0
      000000A0H.2 SFRSYM    DATA     BIT       IV2
      00000098H.6 SFRSYM    DATA     BIT       SM1
      0000008BH   SFRSYM    DATA     BYTE      TL1
      000000A0H.3 SFRSYM    DATA     BIT       IV3
      000000CCH   SFRSYM    DATA     BYTE      TL2
      000000A0H.4 SFRSYM    DATA     BIT       IV4
      000000A5H   SFRSYM    DATA     BYTE      WUCONF
      000000D0H.3 SFRSYM    DATA     BIT       RS0
      00000088H.4 SFRSYM    DATA     BIT       TR0
      000000D0H.4 SFRSYM    DATA     BIT       RS1
      00000088H.6 SFRSYM    DATA     BIT       TR1
      000000CAH   SFRSYM    DATA     WORD      CRC
      000000A6H   SFRSYM    DATA     BYTE      INTEXP
      000000FAH   SFRSYM    DATA     BYTE      FCR
      000000D9H   SFRSYM    DATA     BYTE      USBSLP
      00000083H   SFRSYM    DATA     BYTE      DPH
      000000C0H.1 SFRSYM    DATA     BIT       RFF
      000000C0H.3 SFRSYM    DATA     BIT       USBWUF
      00000094H   SFRSYM    DATA     BYTE      P0DIR
      00000082H   SFRSYM    DATA     BYTE      DPL
      00000099H   SFRSYM    DATA     BYTE      S0BUF
      00000095H   SFRSYM    DATA     BYTE      P0ALT
      000000B8H.7 SFRSYM    DATA     BIT       EXEN2
      000000BEH   SFRSYM    DATA     BYTE      SSSTAT
      000000A4H   SFRSYM    DATA     BYTE      PWRDWN
      00000098H   SFRSYM    DATA     BYTE      S0CON
      000000B1H   SFRSYM    DATA     BYTE      RSTRES
      000000C8H   SFRSYM    DATA     BYTE      T2CON
      00000092H   SFRSYM    DATA     BYTE      DPS
      000000B8H.4 SFRSYM    DATA     BIT       USB
      000000F8H.5 SFRSYM    DATA     BIT       WEN
      000000F8H   SFRSYM    DATA     BYTE      FSR
      000000B8H.2 SFRSYM    DATA     BIT       SPI
      000000F8H.1 SFRSYM    DATA     BIT       RDEND
      000000C9H   SFRSYM    DATA     BYTE      P0EXP
      0000008EH   SFRSYM    DATA     BYTE      CKCON
      000000E8H   SFRSYM    DATA     BYTE      AESCS
      000000F8H.3 SFRSYM    DATA     BIT       INFEN
      000000F8H.7 SFRSYM    DATA     BIT       MCDIS
      000000C0H.5 SFRSYM    DATA     BIT       WUF
      000000E5H   SFRSYM    DATA     BYTE      RFDAT
      000000EFH   SFRSYM    DATA     BYTE      ARCON
      000000D0H.5 SFRSYM    DATA     BIT       F0
      000000D0H.1 SFRSYM    DATA     BIT       F1
      000000F8H.6 SFRSYM    DATA     BIT       STP
      000000F2H   SFRSYM    DATA     BYTE      AESIV
      00000090H   SFRSYM    DATA     BYTE      RFCON
      000000D0H   SFRSYM    DATA     BYTE      PSW
      000000B2H   SFRSYM    DATA     BYTE      SMDAT
      000000ADH   SFRSYM    DATA     BYTE      REGXC
      00000098H.2 SFRSYM    DATA     BIT       RB80
      000000E6H   SFRSYM    DATA     BYTE      RFCTL
      000000D8H   SFRSYM    DATA     BYTE      WDCON
      000000C0H   SFRSYM    DATA     BYTE      IRCON
      00000090H.1 SFRSYM    DATA     BIT       RFCSN
      02008001H   SYMBOL    XDATA    BYTE      gzll_current_tx_pipe
      010017D8H   SYMBOL    CODE     ---       gzll_reload_tries_pr_channel_counter
      02008002H   SYMBOL    XDATA    WORD      gzll_timeout_counter
      02008004H   SYMBOL    XDATA    BYTE      gzll_channel_tab_index
      02008005H   SYMBOL    XDATA    ---       gzll_channel_tab
      02008015H   SYMBOL    XDATA    WORD      gzll_chm_rx_mode1_sequence
      0100001EH   SYMBOL    CODE     ---       gzll_interupts_enable_rfck_disable
LX51 LINKER/LOCATER V4.66.41.0                                                        02/08/2016  23:35:20  PAGE 37


      010017F7H   SYMBOL    CODE     ---       gzll_interupts_disable_rfck_enable
      01001929H   SYMBOL    CODE     ---       gzll_chm_get_next_rx_channel
      02008017H   SYMBOL    XDATA    BYTE      gzll_current_tx_payload_length
      010012BDH   SYMBOL    CODE     ---       _gzll_set_radio_power_on
      02008018H   SYMBOL    XDATA    BYTE      gzll_tries_pr_channel_counter
      010018ADH   SYMBOL    CODE     ---       gzll_chm_execute
      02008019H   SYMBOL    XDATA    ---       gzll_ack_rx_pipe_fifo
      0200801CH   SYMBOL    XDATA    BYTE      gzll_channel_tab_size
      00000020H   SYMBOL    DATA     WORD      gzll_bit_storage
      01000881H   SYMBOL    CONST    ---       _?ix1000
      0200801DH   SYMBOL    XDATA    WORD      gzll_sync_period
      01000886H   SYMBOL    CONST    ---       _?ix1001
      010014DDH   SYMBOL    CODE     ---       _gzll_start_new_tx
      0200801FH   SYMBOL    XDATA    ---       gzll_dyn_params
      0200803FH   SYMBOL    XDATA    ---       gzll_p0_adr
      02008044H   SYMBOL    XDATA    WORD      gzll_channel_switch_counter
      02008046H   SYMBOL    XDATA    BYTE      gzll_ack_rx_pipe_fifo_cnt
      0100144EH   SYMBOL    CODE     ---       gzll_chm_get_rx_ce_offset
      01001950H   SYMBOL    CODE     ---       gzll_chm_get_tx_ce_offset
      02008047H   SYMBOL    XDATA    BYTE      gzll_chm_rx_channel_index
      01001583H   SYMBOL    CODE     ---       gzll_set_radio_auto_retries
      02008048H   SYMBOL    XDATA    WORD      gzll_try_counter
      01001919H   SYMBOL    CODE     ---       gzll_chm_reset_rx_channel_index
      0200804AH   SYMBOL    XDATA    BYTE      gzll_chm_hold_rx_channel_index
      0200804BH   SYMBOL    XDATA    WORD      gzll_chm_rx_channel_hold
      01001274H   SYMBOL    CODE     ---       gzll_chm_hold_rx_channel
      01001407H   SYMBOL    CODE     ---       gzll_chm_get_current_rx_channel
      0200804DH   SYMBOL    XDATA    BYTE      gzll_state_var
      0100128CH   SYMBOL    CODE     ---       gzll_set_system_idle
      01001855H   SYMBOL    CODE     ---       _gzll_lfsr_get

      010017F7H   BLOCK     CODE     ---       LVL=0
      010017F7H   LINE      ---      ---       #364
      010017F7H   LINE      ---      ---       #365
      010017F7H   BLOCK     CODE     NEAR LAB  LVL=1
      010017F7H   LINE      ---      ---       #367
      010017FBH   LINE      ---      ---       #368
      010017FDH   LINE      ---      ---       #369
      01001801H   LINE      ---      ---       #370
      01001805H   LINE      ---      ---       #371
      01001809H   LINE      ---      ---       #372
      00000007H   SYMBOL    DATA     BYTE      t_ea
      ---         BLOCKEND  CODE     ---       LVL=1
      ---         BLOCKEND  CODE     ---       LVL=0

      0100001EH   BLOCK     CODE     ---       LVL=0
      0100001EH   LINE      ---      ---       #374
      0100001EH   LINE      ---      ---       #375
      0100001EH   LINE      ---      ---       #376
      01000022H   LINE      ---      ---       #377
      01000028H   LINE      ---      ---       #378
      ---         BLOCKEND  ---      ---       LVL=0

      01000DD2H   BLOCK     CODE     ---       LVL=0
      01000DD2H   LINE      ---      ---       #384
      01000DD2H   LINE      ---      ---       #385
      01000DD2H   BLOCK     CODE     NEAR LAB  LVL=1
      01000DD2H   LINE      ---      ---       #386
      01000DE5H   LINE      ---      ---       #388
      01000DE8H   LINE      ---      ---       #389
      01000DF0H   LINE      ---      ---       #391
      01000DF5H   LINE      ---      ---       #392
      01000DFAH   LINE      ---      ---       #393
      01000DFFH   LINE      ---      ---       #398
      01000E04H   LINE      ---      ---       #399
LX51 LINKER/LOCATER V4.66.41.0                                                        02/08/2016  23:35:20  PAGE 38


      01000E0AH   LINE      ---      ---       #401
      01000E0CH   LINE      ---      ---       #402
      01000E0EH   LINE      ---      ---       #404
      01000E13H   LINE      ---      ---       #405
      01000E15H   LINE      ---      ---       #406
      01000E17H   LINE      ---      ---       #407
      01000E19H   LINE      ---      ---       #408
      01000E1BH   LINE      ---      ---       #409
      01000E1DH   LINE      ---      ---       #411
      01000E23H   LINE      ---      ---       #412
      01000E25H   LINE      ---      ---       #414
      01000E27H   LINE      ---      ---       #415
      01000E29H   LINE      ---      ---       #416
      01000E2DH   LINE      ---      ---       #421
      01000E36H   LINE      ---      ---       #422
      01000E40H   LINE      ---      ---       #424
      01000E46H   LINE      ---      ---       #425
      01000E50H   LINE      ---      ---       #427
      01000E56H   LINE      ---      ---       #428
      01000E60H   LINE      ---      ---       #430
      01000E66H   LINE      ---      ---       #431
      01000E70H   LINE      ---      ---       #433
      01000E76H   LINE      ---      ---       #434
      01000E80H   LINE      ---      ---       #439
      01000E92H   LINE      ---      ---       #444
      01000E99H   LINE      ---      ---       #445
      01000EA0H   LINE      ---      ---       #446
      01000EA7H   LINE      ---      ---       #447
      01000EAEH   LINE      ---      ---       #448
      01000EB3H   LINE      ---      ---       #449
      01000EB9H   LINE      ---      ---       #450
      01000EC0H   LINE      ---      ---       #451
      01000EC6H   LINE      ---      ---       #452
      01000ECCH   LINE      ---      ---       #453
      01000ED4H   LINE      ---      ---       #454
      01000EDCH   LINE      ---      ---       #455
      01000EE3H   LINE      ---      ---       #456
      01000EECH   LINE      ---      ---       #457
      01000EF1H   LINE      ---      ---       #458
      01000EF7H   LINE      ---      ---       #459
      01000EFEH   LINE      ---      ---       #464
      01000F01H   LINE      ---      ---       #469
      01000F06H   LINE      ---      ---       #470
      01000F0BH   LINE      ---      ---       #471
      01000F10H   LINE      ---      ---       #477
      01000F12H   LINE      ---      ---       #479
      01000F14H   LINE      ---      ---       #480
      01000F16H   LINE      ---      ---       #482
      01000F1CH   LINE      ---      ---       #483
      01000F1FH   LINE      ---      ---       #484
      02008069H   SYMBOL    XDATA    ---       temp_adr
      ---         BLOCKEND  CODE     ---       LVL=1
      ---         BLOCKEND  CODE     ---       LVL=0
      00000006H   SYMBOL    DATA     BYTE      param
      00000004H   SYMBOL    DATA     WORD      val
      00000006H   SYMBOL    DATA     BYTE      param
      00000001H   SYMBOL    DATA     ---       channels
      00000005H   SYMBOL    DATA     BYTE      channel_tab_size
      00000006H   SYMBOL    DATA     BYTE      pipe
      00000001H   SYMBOL    DATA     ---       address

      01001703H   BLOCK     CODE     ---       LVL=0
      01001703H   LINE      ---      ---       #618
      01001703H   LINE      ---      ---       #619
      01001703H   BLOCK     CODE     NEAR LAB  LVL=1
LX51 LINKER/LOCATER V4.66.41.0                                                        02/08/2016  23:35:20  PAGE 39


      01001703H   LINE      ---      ---       #622
      01001705H   LINE      ---      ---       #624
      01001708H   LINE      ---      ---       #625
      01001708H   LINE      ---      ---       #626
      0100170AH   LINE      ---      ---       #628
      0100170CH   LINE      ---      ---       #629
      0100170EH   LINE      ---      ---       #634
      01001711H   LINE      ---      ---       #639
      01001715H   LINE      ---      ---       #640
      01001724H   LINE      ---      ---       #641
      01001724H   LINE      ---      ---       #642
      01001741H   LINE      ---      ---       #643
      01001741H   LINE      ---      ---       #644
      0100174AH   LINE      ---      ---       #645
      0100174AH   LINE      ---      ---       #646
      01001752H   LINE      ---      ---       #647
      01001756H   LINE      ---      ---       #648
      01001756H   LINE      ---      ---       #650
      0100175AH   LINE      ---      ---       #651
      01001761H   LINE      ---      ---       #652
      01001767H   LINE      ---      ---       #654
      0100176DH   LINE      ---      ---       #655
      02008069H   SYMBOL    XDATA    BYTE      i
      ---         BLOCKEND  CODE     ---       LVL=1
      ---         BLOCKEND  CODE     ---       LVL=0
      00000006H   SYMBOL    DATA     BYTE      dr_rx_pipe
      00000007H   SYMBOL    DATA     BYTE      available_rx_data_pipe
      00000006H   SYMBOL    DATA     WORD      pipe_and_length

      01001770H   BLOCK     CODE     ---       LVL=0
      01001770H   LINE      ---      ---       #1017
      01001770H   LINE      ---      ---       #1018
      01001770H   LINE      ---      ---       #1019
      01001777H   LINE      ---      ---       #1020
      01001777H   LINE      ---      ---       #1021
      01001779H   LINE      ---      ---       #1023
      01001781H   LINE      ---      ---       #1027
      01001781H   LINE      ---      ---       #1028
      01001788H   LINE      ---      ---       #1029
      01001788H   LINE      ---      ---       #1030
      0100178AH   LINE      ---      ---       #1031
      0100178CH   LINE      ---      ---       #1032
      0100178FH   LINE      ---      ---       #1033
      0100178FH   LINE      ---      ---       #1034
      0100178FH   LINE      ---      ---       #1035
      ---         BLOCKEND  ---      ---       LVL=0

      01001855H   BLOCK     CODE     ---       LVL=0
      01001855H   LINE      ---      ---       #1041
      01001855H   LINE      ---      ---       #1042
      00000007H   SYMBOL    DATA     BYTE      seed
      00000005H   SYMBOL    DATA     BYTE      max_limit
      01001855H   BLOCK     CODE     NEAR LAB  LVL=1
      01001855H   LINE      ---      ---       #1046
      0100185BH   LINE      ---      ---       #1047
      0100185BH   LINE      ---      ---       #1048
      01001860H   LINE      ---      ---       #1049
      01001860H   LINE      ---      ---       #1051
      0100186CH   LINE      ---      ---       #1052
      01001874H   LINE      ---      ---       #1053
      0100187CH   LINE      ---      ---       #1054
      01001881H   LINE      ---      ---       #1056
      01001886H   LINE      ---      ---       #1058
      0100188DH   LINE      ---      ---       #1059
      02008000H   SYMBOL    XDATA    BYTE      pseudoreg
LX51 LINKER/LOCATER V4.66.41.0                                                        02/08/2016  23:35:20  PAGE 40


      00000006H   SYMBOL    DATA     BYTE      shiftbit
      ---         BLOCKEND  CODE     ---       LVL=1
      ---         BLOCKEND  CODE     ---       LVL=0

      0100188EH   BLOCK     CODE     ---       LVL=0
      0100188EH   LINE      ---      ---       #1061
      0100188EH   LINE      ---      ---       #1062
      00000007H   SYMBOL    DATA     BYTE      n
      0100188EH   BLOCK     CODE     NEAR LAB  LVL=1
      0100188EH   LINE      ---      ---       #1065
      01001897H   LINE      ---      ---       #1066
      01001897H   LINE      ---      ---       #1067
      0100189BH   LINE      ---      ---       #1068
      010018ACH   LINE      ---      ---       #1071
      00000004H   SYMBOL    DATA     WORD      c
      ---         BLOCKEND  CODE     ---       LVL=1
      ---         BLOCKEND  CODE     ---       LVL=0

      010014DDH   BLOCK     CODE     ---       LVL=0
      010014DDH   LINE      ---      ---       #1073
      010014E2H   LINE      ---      ---       #1074
      02008082H   SYMBOL    XDATA    BYTE      channel_select
      010014E2H   BLOCK     CODE     NEAR LAB  LVL=1
      010014E2H   LINE      ---      ---       #1077
      010014E4H   LINE      ---      ---       #1078
      010014E6H   LINE      ---      ---       #1081
      010014F5H   LINE      ---      ---       #1082
      010014F5H   LINE      ---      ---       #1083
      010014F5H   LINE      ---      ---       #1084
      010014F5H   LINE      ---      ---       #1085
      010014FDH   LINE      ---      ---       #1086
      010014FFH   LINE      ---      ---       #1087
      010014FFH   LINE      ---      ---       #1088
      0100150EH   LINE      ---      ---       #1089
      01001510H   LINE      ---      ---       #1090
      01001510H   LINE      ---      ---       #1091
      01001518H   LINE      ---      ---       #1092
      0100151AH   LINE      ---      ---       #1093
      0100151AH   LINE      ---      ---       #1094
      01001523H   LINE      ---      ---       #1095
      01001534H   LINE      ---      ---       #1096
      01001534H   LINE      ---      ---       #1097
      01001534H   LINE      ---      ---       #1100
      01001541H   LINE      ---      ---       #1101
      01001541H   LINE      ---      ---       #1102
      01001546H   LINE      ---      ---       #1103
      01001554H   LINE      ---      ---       #1104
      01001562H   LINE      ---      ---       #1105
      01001562H   LINE      ---      ---       #1107
      01001565H   LINE      ---      ---       #1108
      01001565H   LINE      ---      ---       #1110
      01001567H   LINE      ---      ---       #1111
      01001568H   LINE      ---      ---       #1113
      01001568H   LINE      ---      ---       #1114
      0100156AH   LINE      ---      ---       #1115
      0100156EH   LINE      ---      ---       #1116
      0100156EH   LINE      ---      ---       #1118
      02008083H   SYMBOL    XDATA    BYTE      temp
      ---         BLOCKEND  CODE     ---       LVL=1
      ---         BLOCKEND  CODE     ---       LVL=0

      010017D8H   BLOCK     CODE     ---       LVL=0
      010017D8H   LINE      ---      ---       #1120
      010017D8H   LINE      ---      ---       #1121
      010017D8H   LINE      ---      ---       #1122
LX51 LINKER/LOCATER V4.66.41.0                                                        02/08/2016  23:35:20  PAGE 41


      010017DBH   LINE      ---      ---       #1123
      010017DBH   LINE      ---      ---       #1124
      010017DEH   LINE      ---      ---       #1125
      010017E0H   LINE      ---      ---       #1127
      010017E0H   LINE      ---      ---       #1128
      010017E9H   LINE      ---      ---       #1129
      010017E9H   LINE      ---      ---       #1130
      ---         BLOCKEND  ---      ---       LVL=0

      01001583H   BLOCK     CODE     ---       LVL=0
      01001583H   LINE      ---      ---       #1132
      01001583H   LINE      ---      ---       #1133
      01001583H   LINE      ---      ---       #1134
      0100158CH   LINE      ---      ---       #1135
      0100158CH   LINE      ---      ---       #1136
      01001592H   LINE      ---      ---       #1137
      01001594H   LINE      ---      ---       #1139
      01001594H   LINE      ---      ---       #1140
      ---         BLOCKEND  ---      ---       LVL=0

      0100128CH   BLOCK     CODE     ---       LVL=0
      0100128CH   LINE      ---      ---       #1144
      0100128CH   LINE      ---      ---       #1145
      0100128CH   LINE      ---      ---       #1146
      01001294H   LINE      ---      ---       #1148
      0100129BH   LINE      ---      ---       #1149
      0100129BH   LINE      ---      ---       #1151
      010012A0H   LINE      ---      ---       #1152
      010012A0H   LINE      ---      ---       #1154
      010012ACH   LINE      ---      ---       #1155
      010012ACH   LINE      ---      ---       #1156
      010012ADH   LINE      ---      ---       #1157
      010012AFH   LINE      ---      ---       #1159
      010012AFH   LINE      ---      ---       #1160
      010012B3H   LINE      ---      ---       #1161
      010012B3H   LINE      ---      ---       #1163
      010012B5H   LINE      ---      ---       #1164
      010012B7H   LINE      ---      ---       #1165
      010012BCH   LINE      ---      ---       #1166
      ---         BLOCKEND  ---      ---       LVL=0

      01001068H   BLOCK     CODE     ---       LVL=0
      01001068H   LINE      ---      ---       #1171
      01001068H   LINE      ---      ---       #1172
      01001068H   BLOCK     CODE     NEAR LAB  LVL=1
      01001068H   LINE      ---      ---       #1180
      0100106CH   LINE      ---      ---       #1181
      01001070H   LINE      ---      ---       #1183
      01001077H   LINE      ---      ---       #1186
      0100107AH   LINE      ---      ---       #1187
      0100107AH   LINE      ---      ---       #1188
      0100107CH   LINE      ---      ---       #1189
      01001083H   LINE      ---      ---       #1190
      01001085H   LINE      ---      ---       #1197
      0100108CH   LINE      ---      ---       #1198
      0100108CH   LINE      ---      ---       #1199
      010010A1H   LINE      ---      ---       #1200
      010010A7H   LINE      ---      ---       #1201
      010010A7H   LINE      ---      ---       #1202
      010010ADH   LINE      ---      ---       #1203
      010010ADH   LINE      ---      ---       #1204
      010010ADH   LINE      ---      ---       #1206
      010010ADH   LINE      ---      ---       #1210
      010010B8H   LINE      ---      ---       #1211
      010010B8H   LINE      ---      ---       #1212
LX51 LINKER/LOCATER V4.66.41.0                                                        02/08/2016  23:35:20  PAGE 42


      010010C2H   LINE      ---      ---       #1213
      010010C9H   LINE      ---      ---       #1214
      010010D6H   LINE      ---      ---       #1215
      010010D6H   LINE      ---      ---       #1219
      010010E0H   LINE      ---      ---       #1220
      010010E0H   LINE      ---      ---       #1222
      010010EAH   LINE      ---      ---       #1223
      010010EAH   LINE      ---      ---       #1224
      010010ECH   LINE      ---      ---       #1226
      0100111AH   LINE      ---      ---       #1227
      0100111EH   LINE      ---      ---       #1228
      0100111EH   LINE      ---      ---       #1229
      01001126H   LINE      ---      ---       #1230
      01001126H   LINE      ---      ---       #1232
      01001129H   LINE      ---      ---       #1234
      0100112CH   LINE      ---      ---       #1235
      0100112EH   LINE      ---      ---       #1237
      0100113EH   LINE      ---      ---       #1239
      0100114DH   LINE      ---      ---       #1241
      01001166H   LINE      ---      ---       #1242
      01001166H   LINE      ---      ---       #1243
      01001168H   LINE      ---      ---       #1244
      01001168H   LINE      ---      ---       #1249
      0100116DH   LINE      ---      ---       #1250
      0100116DH   LINE      ---      ---       #1251
      0100116FH   LINE      ---      ---       #1252
      01001171H   LINE      ---      ---       #1253
      01001173H   LINE      ---      ---       #1255
      01001173H   LINE      ---      ---       #1256
      01001175H   LINE      ---      ---       #1257
      0100117CH   LINE      ---      ---       #1258
      01001182H   LINE      ---      ---       #1259
      0100118FH   LINE      ---      ---       #1260
      0100118FH   LINE      ---      ---       #1261
      0100118FH   LINE      ---      ---       #1263
      0100118FH   LINE      ---      ---       #1269
      01001198H   LINE      ---      ---       #1270
      01001198H   LINE      ---      ---       #1271
      010011A0H   LINE      ---      ---       #1273
      010011B2H   LINE      ---      ---       #1274
      010011C2H   LINE      ---      ---       #1277
      010011DDH   LINE      ---      ---       #1279
      010011DDH   LINE      ---      ---       #1280
      010011DFH   LINE      ---      ---       #1281
      010011E1H   LINE      ---      ---       #1283
      010011E1H   LINE      ---      ---       #1285
      010011E7H   LINE      ---      ---       #1286
      010011E7H   LINE      ---      ---       #1288
      010011FCH   LINE      ---      ---       #1289
      010011FCH   LINE      ---      ---       #1290
      01001203H   LINE      ---      ---       #1291
      01001205H   LINE      ---      ---       #1292
      01001207H   LINE      ---      ---       #1293
      01001209H   LINE      ---      ---       #1295
      01001209H   LINE      ---      ---       #1296
      0100120CH   LINE      ---      ---       #1297
      0100120CH   LINE      ---      ---       #1299
      01001218H   LINE      ---      ---       #1300
      01001218H   LINE      ---      ---       #1301
      0100121AH   LINE      ---      ---       #1302
      0100121AH   LINE      ---      ---       #1303
      0100121CH   LINE      ---      ---       #1304
      0100121EH   LINE      ---      ---       #1306
      0100121EH   LINE      ---      ---       #1307
      01001222H   LINE      ---      ---       #1308
LX51 LINKER/LOCATER V4.66.41.0                                                        02/08/2016  23:35:20  PAGE 43


      01001222H   LINE      ---      ---       #1309
      01001222H   LINE      ---      ---       #1310
      01001224H   LINE      ---      ---       #1312
      01001224H   LINE      ---      ---       #1313
      01001226H   LINE      ---      ---       #1314
      0100122AH   LINE      ---      ---       #1315
      0100122AH   LINE      ---      ---       #1316
      0100122AH   LINE      ---      ---       #1317
      0100122AH   LINE      ---      ---       #1320
      01001230H   LINE      ---      ---       #1321
      01001234H   LINE      ---      ---       #1322
      0200807EH   SYMBOL    XDATA    BYTE      tries
      00000006H   SYMBOL    DATA     WORD      timer_mod_period
      0200807FH   SYMBOL    XDATA    WORD      temp
      02008081H   SYMBOL    XDATA    BYTE      status
      ---         BLOCKEND  CODE     ---       LVL=1
      ---         BLOCKEND  CODE     ---       LVL=0

      010012D9H   BLOCK     CODE     ---       LVL=0
      010012D9H   LINE      ---      ---       #1324
      010012D9H   LINE      ---      ---       #1325
      010012D9H   BLOCK     CODE     NEAR LAB  LVL=1
      010012D9H   LINE      ---      ---       #1328
      010012DDH   LINE      ---      ---       #1329
      010012E0H   LINE      ---      ---       #1333
      010012E3H   LINE      ---      ---       #1334
      010012E3H   LINE      ---      ---       #1335
      010012EEH   LINE      ---      ---       #1336
      010012F0H   LINE      ---      ---       #1337
      010012F0H   LINE      ---      ---       #1342
      010012FAH   LINE      ---      ---       #1343
      010012FAH   LINE      ---      ---       #1344
      01001306H   LINE      ---      ---       #1345
      0100130AH   LINE      ---      ---       #1348
      01001314H   LINE      ---      ---       #1349
      01001314H   LINE      ---      ---       #1350
      0100131CH   LINE      ---      ---       #1351
      01001330H   LINE      ---      ---       #1352
      01001336H   LINE      ---      ---       #1353
      0100133FH   LINE      ---      ---       #1354
      0100133FH   LINE      ---      ---       #1356
      01001349H   LINE      ---      ---       #1359
      0100134FH   LINE      ---      ---       #1360
      0100134FH   LINE      ---      ---       #1361
      01001353H   LINE      ---      ---       #1362
      01001355H   LINE      ---      ---       #1363
      0100135BH   LINE      ---      ---       #1364
      0100135DH   LINE      ---      ---       #1366
      0100135DH   LINE      ---      ---       #1367
      01001365H   LINE      ---      ---       #1368
      01001367H   LINE      ---      ---       #1369
      0100136BH   LINE      ---      ---       #1370
      0100136BH   LINE      ---      ---       #1372
      01001379H   LINE      ---      ---       #1374
      01001389H   LINE      ---      ---       #1375
      010013A5H   LINE      ---      ---       #1376
      010013A5H   LINE      ---      ---       #1377
      010013A7H   LINE      ---      ---       #1378
      010013A7H   LINE      ---      ---       #1379
      010013A9H   LINE      ---      ---       #1382
      010013A9H   LINE      ---      ---       #1385
      010013B1H   LINE      ---      ---       #1386
      010013B1H   LINE      ---      ---       #1388
      010013B4H   LINE      ---      ---       #1389
      010013B4H   LINE      ---      ---       #1390
LX51 LINKER/LOCATER V4.66.41.0                                                        02/08/2016  23:35:20  PAGE 44


      010013BFH   LINE      ---      ---       #1392
      010013D5H   LINE      ---      ---       #1395
      010013D5H   LINE      ---      ---       #1396
      010013D9H   LINE      ---      ---       #1397
      010013DBH   LINE      ---      ---       #1398
      010013DDH   LINE      ---      ---       #1399
      010013DDH   LINE      ---      ---       #1400
      010013DDH   LINE      ---      ---       #1401
      010013DDH   LINE      ---      ---       #1403
      010013DDH   LINE      ---      ---       #1406
      010013ECH   LINE      ---      ---       #1407
      010013ECH   LINE      ---      ---       #1408
      010013F8H   LINE      ---      ---       #1409
      010013FAH   LINE      ---      ---       #1411
      010013FAH   LINE      ---      ---       #1412
      010013FCH   LINE      ---      ---       #1413
      010013FCH   LINE      ---      ---       #1416
      01001402H   LINE      ---      ---       #1417
      01001406H   LINE      ---      ---       #1418
      02008086H   SYMBOL    XDATA    WORD      temp
      ---         BLOCKEND  CODE     ---       LVL=1
      ---         BLOCKEND  CODE     ---       LVL=0

      010018ADH   BLOCK     CODE     ---       LVL=0
      010018ADH   LINE      ---      ---       #1429
      010018ADH   LINE      ---      ---       #1430
      010018ADH   LINE      ---      ---       #1431
      010018BCH   LINE      ---      ---       #1432
      010018BCH   LINE      ---      ---       #1433
      010018C8H   LINE      ---      ---       #1434
      010018C8H   LINE      ---      ---       #1437
      010018E9H   LINE      ---      ---       #1439
      010018FDH   LINE      ---      ---       #1441
      010018FDH   LINE      ---      ---       #1442
      01001918H   LINE      ---      ---       #1443
      01001918H   LINE      ---      ---       #1444
      ---         BLOCKEND  ---      ---       LVL=0

      01001919H   BLOCK     CODE     ---       LVL=0
      01001919H   LINE      ---      ---       #1446
      01001919H   LINE      ---      ---       #1447
      01001919H   LINE      ---      ---       #1448
      01001921H   LINE      ---      ---       #1449
      01001928H   LINE      ---      ---       #1450
      ---         BLOCKEND  ---      ---       LVL=0

      01001929H   BLOCK     CODE     ---       LVL=0
      01001929H   LINE      ---      ---       #1452
      01001929H   LINE      ---      ---       #1453
      01001929H   LINE      ---      ---       #1454
      01001938H   LINE      ---      ---       #1455
      01001938H   LINE      ---      ---       #1456
      0100193EH   LINE      ---      ---       #1457
      0100193EH   LINE      ---      ---       #1459
      0100193EH   LINE      ---      ---       #1460
      0100194FH   LINE      ---      ---       #1461
      0100194FH   LINE      ---      ---       #1462
      ---         BLOCKEND  ---      ---       LVL=0

      01001407H   BLOCK     CODE     ---       LVL=0
      01001407H   LINE      ---      ---       #1464
      01001407H   LINE      ---      ---       #1465
      01001407H   LINE      ---      ---       #1466
      01001416H   LINE      ---      ---       #1467
      01001416H   LINE      ---      ---       #1468
LX51 LINKER/LOCATER V4.66.41.0                                                        02/08/2016  23:35:20  PAGE 45


      0100141CH   LINE      ---      ---       #1469
      0100141CH   LINE      ---      ---       #1471
      0100141CH   LINE      ---      ---       #1472
      01001421H   LINE      ---      ---       #1473
      01001421H   LINE      ---      ---       #1474
      ---         BLOCKEND  ---      ---       LVL=0

      01001274H   BLOCK     CODE     ---       LVL=0
      01001274H   LINE      ---      ---       #1476
      01001274H   LINE      ---      ---       #1477
      01001274H   LINE      ---      ---       #1478
      01001283H   LINE      ---      ---       #1479
      0100128BH   LINE      ---      ---       #1480
      ---         BLOCKEND  ---      ---       LVL=0

      01001950H   BLOCK     CODE     ---       LVL=0
      01001950H   LINE      ---      ---       #1482
      01001950H   LINE      ---      ---       #1483
      01001950H   LINE      ---      ---       #1484
      01001969H   LINE      ---      ---       #1485
      01001969H   LINE      ---      ---       #1486
      0100196DH   LINE      ---      ---       #1487
      0100196DH   LINE      ---      ---       #1490
      0100196DH   LINE      ---      ---       #1491
      01001978H   LINE      ---      ---       #1492
      01001978H   LINE      ---      ---       #1493
      0100197BH   LINE      ---      ---       #1494
      0100197BH   LINE      ---      ---       #1496
      0100197BH   LINE      ---      ---       #1497
      01001988H   LINE      ---      ---       #1498
      01001988H   LINE      ---      ---       #1499
      01001988H   LINE      ---      ---       #1500
      ---         BLOCKEND  ---      ---       LVL=0

      0100144EH   BLOCK     CODE     ---       LVL=0
      0100144EH   LINE      ---      ---       #1502
      0100144EH   LINE      ---      ---       #1503
      0100144EH   BLOCK     CODE     NEAR LAB  LVL=1
      0100144EH   LINE      ---      ---       #1507
      01001467H   LINE      ---      ---       #1508
      01001467H   LINE      ---      ---       #1509
      0100146BH   LINE      ---      ---       #1510
      0100146BH   LINE      ---      ---       #1512
      0100146BH   LINE      ---      ---       #1513
      01001475H   LINE      ---      ---       #1514
      01001475H   LINE      ---      ---       #1515
      01001478H   LINE      ---      ---       #1516
      01001478H   LINE      ---      ---       #1518
      01001478H   LINE      ---      ---       #1519
      01001487H   LINE      ---      ---       #1520
      01001496H   LINE      ---      ---       #1522
      010014B1H   LINE      ---      ---       #1523
      010014B1H   LINE      ---      ---       #1524
      010014C7H   LINE      ---      ---       #1525
      010014C7H   LINE      ---      ---       #1527
      010014C7H   LINE      ---      ---       #1528
      010014DCH   LINE      ---      ---       #1529
      010014DCH   LINE      ---      ---       #1530
      010014DCH   LINE      ---      ---       #1531
      010014DCH   LINE      ---      ---       #1532
      00000006H   SYMBOL    DATA     WORD      total_tx_time_per_channel
      00000002H   SYMBOL    DATA     WORD      rx_periods_per_channel
      ---         BLOCKEND  CODE     ---       LVL=1
      ---         BLOCKEND  CODE     ---       LVL=0

LX51 LINKER/LOCATER V4.66.41.0                                                        02/08/2016  23:35:20  PAGE 46


      010012BDH   BLOCK     CODE     ---       LVL=0
      010012BDH   LINE      ---      ---       #1534
      010012BDH   LINE      ---      ---       #1535
      00000007H   SYMBOL    DATA     BYTE      on
      010012BDH   BLOCK     CODE     NEAR LAB  LVL=1
      010012BDH   LINE      ---      ---       #1538
      010012C0H   LINE      ---      ---       #1539
      010012C0H   LINE      ---      ---       #1540
      010012C3H   LINE      ---      ---       #1541
      010012C3H   LINE      ---      ---       #1542
      010012C7H   LINE      ---      ---       #1543
      010012C9H   LINE      ---      ---       #1544
      010012CFH   LINE      ---      ---       #1545
      010012D1H   LINE      ---      ---       #1546
      010012D1H   LINE      ---      ---       #1547
      010012D2H   LINE      ---      ---       #1549
      010012D2H   LINE      ---      ---       #1550
      010012D6H   LINE      ---      ---       #1551
      010012D8H   LINE      ---      ---       #1552
      010012D8H   LINE      ---      ---       #1553
      00000007H   SYMBOL    DATA     BYTE      n
      ---         BLOCKEND  CODE     ---       LVL=1
      ---         BLOCKEND  CODE     ---       LVL=0

      ---         MODULE    ---      ---       HAL_DELAY
      0100124EH   PUBLIC    CODE     ---       _delay_ms
      0100123FH   PUBLIC    CODE     ---       _delay_us

      01001235H   BLOCK     CODE     ---       LVL=0
      0100123FH   LINE      ---      ---       #37
      0100123FH   LINE      ---      ---       #38
      0100123FH   LINE      ---      ---       #40
      0100123FH   LINE      ---      ---       #41
      01001240H   LINE      ---      ---       #42
      01001241H   LINE      ---      ---       #43
      01001242H   LINE      ---      ---       #44
      01001243H   LINE      ---      ---       #45
      01001244H   LINE      ---      ---       #46
      0100124DH   LINE      ---      ---       #47
      00000006H   SYMBOL    DATA     WORD      us
      ---         BLOCKEND  ---      ---       LVL=0

      0100124EH   BLOCK     CODE     ---       LVL=0
      0100124EH   LINE      ---      ---       #49
      01001252H   LINE      ---      ---       #50
      01001252H   LINE      ---      ---       #52
      01001252H   LINE      ---      ---       #53
      01001258H   LINE      ---      ---       #54
      0100125EH   LINE      ---      ---       #55
      01001264H   LINE      ---      ---       #56
      0100126AH   LINE      ---      ---       #57
      01001273H   LINE      ---      ---       #58
      00000004H   SYMBOL    DATA     WORD      ms
      ---         BLOCKEND  ---      ---       LVL=0

      ---         MODULE    ---      ---       HAL_AES
      00000098H.3 SFRSYM    DATA     BIT       TB80
      000000C8H   SFRSYM    DATA     BIT       T2I0
      000000C3H   SFRSYM    DATA     BYTE      CCH1
      000000ABH   SFRSYM    DATA     BYTE      REGXH
      00000080H   SFRSYM    DATA     BYTE      P0
      000000C8H.1 SFRSYM    DATA     BIT       T2I1
      000000C5H   SFRSYM    DATA     BYTE      CCH2
      000000C7H   SFRSYM    DATA     BYTE      CCH3
      00000098H.5 SFRSYM    DATA     BIT       SM20
LX51 LINKER/LOCATER V4.66.41.0                                                        02/08/2016  23:35:20  PAGE 47


      000000D0H.6 SFRSYM    DATA     BIT       AC
      000000C2H   SFRSYM    DATA     BYTE      CCL1
      000000ACH   SFRSYM    DATA     BYTE      REGXL
      000000C4H   SFRSYM    DATA     BYTE      CCL2
      000000B3H   SFRSYM    DATA     BYTE      SMCTL
      000000D8H.7 SFRSYM    DATA     BIT       BD
      000000B8H   SFRSYM    DATA     BIT       RFSPI
      000000A8H.7 SFRSYM    DATA     BIT       EA
      000000CCH   SFRSYM    DATA     WORD      T2
      000000C6H   SFRSYM    DATA     BYTE      CCL3
      000000C8H.3 SFRSYM    DATA     BIT       T2R0
      000000C8H.4 SFRSYM    DATA     BIT       T2R1
      000000A8H   SFRSYM    DATA     BYTE      IEN0
      000000B8H   SFRSYM    DATA     BYTE      IEN1
      00000085H   SFRSYM    DATA     BYTE      DPH1
      0000009AH   SFRSYM    DATA     BYTE      IEN2
      00000084H   SFRSYM    DATA     BYTE      DPL1
      000000C8H.5 SFRSYM    DATA     BIT       I2FR
      000000C8H.6 SFRSYM    DATA     BIT       I3FR
      000000E8H   SFRSYM    DATA     BIT       GO
      000000C0H.7 SFRSYM    DATA     BIT       EXF2
      00000098H.4 SFRSYM    DATA     BIT       REN0
      000000F5H   SFRSYM    DATA     BYTE      AESIA1
      000000C8H.2 SFRSYM    DATA     BIT       T2CM
      000000F6H   SFRSYM    DATA     BYTE      AESIA2
      000000B8H.1 SFRSYM    DATA     BIT       RF
      000000B8H.3 SFRSYM    DATA     BIT       USBWU
      000000B8H.5 SFRSYM    DATA     BIT       WUIRQ
      000000C1H   SFRSYM    DATA     BYTE      CCEN
      000000D0H.7 SFRSYM    DATA     BIT       CY
      000000F3H   SFRSYM    DATA     BYTE      AESD
      000000E8H.1 SFRSYM    DATA     BIT       DECR
      00000090H   SFRSYM    DATA     BIT       RFCE
      000000CBH   SFRSYM    DATA     BYTE      CRCH
      00000081H   SFRSYM    DATA     BYTE      SP
      000000A0H.5 SFRSYM    DATA     BIT       SUSPEND
      000000A0H.7 SFRSYM    DATA     BIT       SWRST
      000000D0H.2 SFRSYM    DATA     BIT       OV
      000000CAH   SFRSYM    DATA     BYTE      CRCL
      000000C8H.7 SFRSYM    DATA     BIT       T2PS
      000000A0H.6 SFRSYM    DATA     BIT       WU
      000000F9H   SFRSYM    DATA     BYTE      FPCR
      00000080H   SFRSYM    DATA     BIT       P00
      000000BAH   SFRSYM    DATA     BYTE      S0RELH
      00000080H.1 SFRSYM    DATA     BIT       P01
      000000C0H.4 SFRSYM    DATA     BIT       USBF
      00000087H   SFRSYM    DATA     BYTE      PCON
      00000080H.3 SFRSYM    DATA     BIT       MCSN
      00000080H.2 SFRSYM    DATA     BIT       P02
      00000080H.3 SFRSYM    DATA     BIT       P03
      000000C0H.2 SFRSYM    DATA     BIT       SPIF
      000000F8H.2 SFRSYM    DATA     BIT       RDIS
      00000080H.4 SFRSYM    DATA     BIT       P04
      000000AAH   SFRSYM    DATA     BYTE      S0RELL
      00000080H.5 SFRSYM    DATA     BIT       P05
      00000089H   SFRSYM    DATA     BYTE      TMOD
      00000088H   SFRSYM    DATA     BYTE      TCON
      000000C2H   SFRSYM    DATA     WORD      CC1
      00000080H.3 SFRSYM    DATA     BIT       SCSN
      000000C4H   SFRSYM    DATA     WORD      CC2
      000000C6H   SFRSYM    DATA     WORD      CC3
      00000090H.2 SFRSYM    DATA     BIT       RFCKEN
      000000F8H   SFRSYM    DATA     BIT       WPEN
      000000F1H   SFRSYM    DATA     BYTE      AESKIN
      00000088H.1 SFRSYM    DATA     BIT       IE0
LX51 LINKER/LOCATER V4.66.41.0                                                        02/08/2016  23:35:20  PAGE 48


      000000F8H.4 SFRSYM    DATA     BIT       RDYN
      00000088H.3 SFRSYM    DATA     BIT       IE1
      000000A3H   SFRSYM    DATA     BYTE      CLKCTL
      000000F0H   SFRSYM    DATA     BYTE      B
      000000E9H   SFRSYM    DATA     BYTE      MD0
      000000EAH   SFRSYM    DATA     BYTE      MD1
      000000BDH   SFRSYM    DATA     BYTE      SSDATA
      000000EBH   SFRSYM    DATA     BYTE      MD2
      000000ECH   SFRSYM    DATA     BYTE      MD3
      000000EDH   SFRSYM    DATA     BYTE      MD4
      000000EEH   SFRSYM    DATA     BYTE      MD5
      000000E0H   SFRSYM    DATA     BYTE      ACC
      000000B5H   SFRSYM    DATA     BYTE      TICKDV
      000000A8H.4 SFRSYM    DATA     BIT       ES0
      000000A8H.1 SFRSYM    DATA     BIT       ET0
      000000A9H   SFRSYM    DATA     BYTE      IP0
      000000A8H.3 SFRSYM    DATA     BIT       ET1
      00000088H.5 SFRSYM    DATA     BIT       TF0
      000000B9H   SFRSYM    DATA     BYTE      IP1
      000000A8H.5 SFRSYM    DATA     BIT       ET2
      00000098H   SFRSYM    DATA     BIT       RI0
      00000088H.7 SFRSYM    DATA     BIT       TF1
      000000C0H   SFRSYM    DATA     BIT       RFSPIF
      000000C0H.6 SFRSYM    DATA     BIT       TF2
      000000A0H   SFRSYM    DATA     BYTE      USBCON
      0000008CH   SFRSYM    DATA     BYTE      TH0
      000000A8H   SFRSYM    DATA     BIT       EX0
      00000098H.1 SFRSYM    DATA     BIT       TI0
      00000088H   SFRSYM    DATA     BIT       IT0
      0000008DH   SFRSYM    DATA     BYTE      TH1
      000000A8H.2 SFRSYM    DATA     BIT       EX1
      00000088H.2 SFRSYM    DATA     BIT       IT1
      000000CDH   SFRSYM    DATA     BYTE      TH2
      000000BCH   SFRSYM    DATA     BYTE      SSCONF
      000000A0H   SFRSYM    DATA     BIT       IV0
      000000D0H   SFRSYM    DATA     BIT       P
      000000A0H.1 SFRSYM    DATA     BIT       IV1
      00000098H.7 SFRSYM    DATA     BIT       SM0
      0000008AH   SFRSYM    DATA     BYTE      TL0
      000000A0H.2 SFRSYM    DATA     BIT       IV2
      00000098H.6 SFRSYM    DATA     BIT       SM1
      0000008BH   SFRSYM    DATA     BYTE      TL1
      000000A0H.3 SFRSYM    DATA     BIT       IV3
      000000CCH   SFRSYM    DATA     BYTE      TL2
      000000A0H.4 SFRSYM    DATA     BIT       IV4
      000000A5H   SFRSYM    DATA     BYTE      WUCONF
      000000D0H.3 SFRSYM    DATA     BIT       RS0
      00000088H.4 SFRSYM    DATA     BIT       TR0
      000000D0H.4 SFRSYM    DATA     BIT       RS1
      00000088H.6 SFRSYM    DATA     BIT       TR1
      000000CAH   SFRSYM    DATA     WORD      CRC
      000000A6H   SFRSYM    DATA     BYTE      INTEXP
      000000FAH   SFRSYM    DATA     BYTE      FCR
      000000D9H   SFRSYM    DATA     BYTE      USBSLP
      00000083H   SFRSYM    DATA     BYTE      DPH
      000000C0H.1 SFRSYM    DATA     BIT       RFF
      000000C0H.3 SFRSYM    DATA     BIT       USBWUF
      00000094H   SFRSYM    DATA     BYTE      P0DIR
      00000082H   SFRSYM    DATA     BYTE      DPL
      00000099H   SFRSYM    DATA     BYTE      S0BUF
      00000095H   SFRSYM    DATA     BYTE      P0ALT
      000000B8H.7 SFRSYM    DATA     BIT       EXEN2
      000000BEH   SFRSYM    DATA     BYTE      SSSTAT
      000000A4H   SFRSYM    DATA     BYTE      PWRDWN
      00000098H   SFRSYM    DATA     BYTE      S0CON
LX51 LINKER/LOCATER V4.66.41.0                                                        02/08/2016  23:35:20  PAGE 49


      000000B1H   SFRSYM    DATA     BYTE      RSTRES
      000000C8H   SFRSYM    DATA     BYTE      T2CON
      00000092H   SFRSYM    DATA     BYTE      DPS
      000000B8H.4 SFRSYM    DATA     BIT       USB
      000000F8H.5 SFRSYM    DATA     BIT       WEN
      000000F8H   SFRSYM    DATA     BYTE      FSR
      000000B8H.2 SFRSYM    DATA     BIT       SPI
      000000F8H.1 SFRSYM    DATA     BIT       RDEND
      000000C9H   SFRSYM    DATA     BYTE      P0EXP
      0000008EH   SFRSYM    DATA     BYTE      CKCON
      000000E8H   SFRSYM    DATA     BYTE      AESCS
      000000F8H.3 SFRSYM    DATA     BIT       INFEN
      000000F8H.7 SFRSYM    DATA     BIT       MCDIS
      000000C0H.5 SFRSYM    DATA     BIT       WUF
      000000E5H   SFRSYM    DATA     BYTE      RFDAT
      000000EFH   SFRSYM    DATA     BYTE      ARCON
      000000D0H.5 SFRSYM    DATA     BIT       F0
      000000D0H.1 SFRSYM    DATA     BIT       F1
      000000F8H.6 SFRSYM    DATA     BIT       STP
      000000F2H   SFRSYM    DATA     BYTE      AESIV
      00000090H   SFRSYM    DATA     BYTE      RFCON
      000000D0H   SFRSYM    DATA     BYTE      PSW
      000000B2H   SFRSYM    DATA     BYTE      SMDAT
      000000ADH   SFRSYM    DATA     BYTE      REGXC
      00000098H.2 SFRSYM    DATA     BIT       RB80
      000000E6H   SFRSYM    DATA     BYTE      RFCTL
      000000D8H   SFRSYM    DATA     BYTE      WDCON
      000000C0H   SFRSYM    DATA     BYTE      IRCON
      00000090H.1 SFRSYM    DATA     BIT       RFCSN
      00000007H   SYMBOL    DATA     BYTE      index
      00000006H   SYMBOL    DATA     BYTE      loop
      00000007H   SYMBOL    DATA     BYTE      mode
      00000007H   SYMBOL    DATA     BYTE      operation
      00000005H   SYMBOL    DATA     BYTE      indirect_start_address
      00000007H   SYMBOL    DATA     CHAR      index
      00000005H   SYMBOL    DATA     BYTE      indirect_start_address
      00000007H   SYMBOL    DATA     CHAR      index
      00000005H   SYMBOL    DATA     BYTE      indirect_start_address
      00000007H   SYMBOL    DATA     CHAR      index
      00000005H   SYMBOL    DATA     BYTE      indirect_start_address
      00000007H   SYMBOL    DATA     CHAR      index

      ---         MODULE    ---      ---       HAL_NRF_HW
      01000FD8H   PUBLIC    CODE     ---       _hal_nrf_rw
      00000098H.3 SFRSYM    DATA     BIT       TB80
      000000C8H   SFRSYM    DATA     BIT       T2I0
      000000C3H   SFRSYM    DATA     BYTE      CCH1
      000000ABH   SFRSYM    DATA     BYTE      REGXH
      00000080H   SFRSYM    DATA     BYTE      P0
      000000C8H.1 SFRSYM    DATA     BIT       T2I1
      000000C5H   SFRSYM    DATA     BYTE      CCH2
      000000C7H   SFRSYM    DATA     BYTE      CCH3
      00000098H.5 SFRSYM    DATA     BIT       SM20
      000000D0H.6 SFRSYM    DATA     BIT       AC
      000000C2H   SFRSYM    DATA     BYTE      CCL1
      000000ACH   SFRSYM    DATA     BYTE      REGXL
      000000C4H   SFRSYM    DATA     BYTE      CCL2
      000000B3H   SFRSYM    DATA     BYTE      SMCTL
      000000D8H.7 SFRSYM    DATA     BIT       BD
      000000B8H   SFRSYM    DATA     BIT       RFSPI
      000000A8H.7 SFRSYM    DATA     BIT       EA
      000000CCH   SFRSYM    DATA     WORD      T2
      000000C6H   SFRSYM    DATA     BYTE      CCL3
      000000C8H.3 SFRSYM    DATA     BIT       T2R0
      000000C8H.4 SFRSYM    DATA     BIT       T2R1
LX51 LINKER/LOCATER V4.66.41.0                                                        02/08/2016  23:35:20  PAGE 50


      000000A8H   SFRSYM    DATA     BYTE      IEN0
      000000B8H   SFRSYM    DATA     BYTE      IEN1
      00000085H   SFRSYM    DATA     BYTE      DPH1
      0000009AH   SFRSYM    DATA     BYTE      IEN2
      00000084H   SFRSYM    DATA     BYTE      DPL1
      000000C8H.5 SFRSYM    DATA     BIT       I2FR
      000000C8H.6 SFRSYM    DATA     BIT       I3FR
      000000E8H   SFRSYM    DATA     BIT       GO
      000000C0H.7 SFRSYM    DATA     BIT       EXF2
      00000098H.4 SFRSYM    DATA     BIT       REN0
      000000F5H   SFRSYM    DATA     BYTE      AESIA1
      000000C8H.2 SFRSYM    DATA     BIT       T2CM
      000000F6H   SFRSYM    DATA     BYTE      AESIA2
      000000B8H.1 SFRSYM    DATA     BIT       RF
      000000B8H.3 SFRSYM    DATA     BIT       USBWU
      000000B8H.5 SFRSYM    DATA     BIT       WUIRQ
      000000C1H   SFRSYM    DATA     BYTE      CCEN
      000000D0H.7 SFRSYM    DATA     BIT       CY
      000000F3H   SFRSYM    DATA     BYTE      AESD
      000000E8H.1 SFRSYM    DATA     BIT       DECR
      00000090H   SFRSYM    DATA     BIT       RFCE
      000000CBH   SFRSYM    DATA     BYTE      CRCH
      00000081H   SFRSYM    DATA     BYTE      SP
      000000A0H.5 SFRSYM    DATA     BIT       SUSPEND
      000000A0H.7 SFRSYM    DATA     BIT       SWRST
      000000D0H.2 SFRSYM    DATA     BIT       OV
      000000CAH   SFRSYM    DATA     BYTE      CRCL
      000000C8H.7 SFRSYM    DATA     BIT       T2PS
      000000A0H.6 SFRSYM    DATA     BIT       WU
      000000F9H   SFRSYM    DATA     BYTE      FPCR
      00000080H   SFRSYM    DATA     BIT       P00
      000000BAH   SFRSYM    DATA     BYTE      S0RELH
      00000080H.1 SFRSYM    DATA     BIT       P01
      000000C0H.4 SFRSYM    DATA     BIT       USBF
      00000087H   SFRSYM    DATA     BYTE      PCON
      00000080H.3 SFRSYM    DATA     BIT       MCSN
      00000080H.2 SFRSYM    DATA     BIT       P02
      00000080H.3 SFRSYM    DATA     BIT       P03
      000000C0H.2 SFRSYM    DATA     BIT       SPIF
      000000F8H.2 SFRSYM    DATA     BIT       RDIS
      00000080H.4 SFRSYM    DATA     BIT       P04
      000000AAH   SFRSYM    DATA     BYTE      S0RELL
      00000080H.5 SFRSYM    DATA     BIT       P05
      00000089H   SFRSYM    DATA     BYTE      TMOD
      00000088H   SFRSYM    DATA     BYTE      TCON
      000000C2H   SFRSYM    DATA     WORD      CC1
      00000080H.3 SFRSYM    DATA     BIT       SCSN
      000000C4H   SFRSYM    DATA     WORD      CC2
      000000C6H   SFRSYM    DATA     WORD      CC3
      00000090H.2 SFRSYM    DATA     BIT       RFCKEN
      000000F8H   SFRSYM    DATA     BIT       WPEN
      000000F1H   SFRSYM    DATA     BYTE      AESKIN
      00000088H.1 SFRSYM    DATA     BIT       IE0
      000000F8H.4 SFRSYM    DATA     BIT       RDYN
      00000088H.3 SFRSYM    DATA     BIT       IE1
      000000A3H   SFRSYM    DATA     BYTE      CLKCTL
      000000F0H   SFRSYM    DATA     BYTE      B
      000000E9H   SFRSYM    DATA     BYTE      MD0
      000000EAH   SFRSYM    DATA     BYTE      MD1
      000000BDH   SFRSYM    DATA     BYTE      SSDATA
      000000EBH   SFRSYM    DATA     BYTE      MD2
      000000ECH   SFRSYM    DATA     BYTE      MD3
      000000EDH   SFRSYM    DATA     BYTE      MD4
      000000EEH   SFRSYM    DATA     BYTE      MD5
      000000E0H   SFRSYM    DATA     BYTE      ACC
LX51 LINKER/LOCATER V4.66.41.0                                                        02/08/2016  23:35:20  PAGE 51


      000000B5H   SFRSYM    DATA     BYTE      TICKDV
      000000A8H.4 SFRSYM    DATA     BIT       ES0
      000000A8H.1 SFRSYM    DATA     BIT       ET0
      000000A9H   SFRSYM    DATA     BYTE      IP0
      000000A8H.3 SFRSYM    DATA     BIT       ET1
      00000088H.5 SFRSYM    DATA     BIT       TF0
      000000B9H   SFRSYM    DATA     BYTE      IP1
      000000A8H.5 SFRSYM    DATA     BIT       ET2
      00000098H   SFRSYM    DATA     BIT       RI0
      00000088H.7 SFRSYM    DATA     BIT       TF1
      000000C0H   SFRSYM    DATA     BIT       RFSPIF
      000000C0H.6 SFRSYM    DATA     BIT       TF2
      000000A0H   SFRSYM    DATA     BYTE      USBCON
      0000008CH   SFRSYM    DATA     BYTE      TH0
      000000A8H   SFRSYM    DATA     BIT       EX0
      00000098H.1 SFRSYM    DATA     BIT       TI0
      00000088H   SFRSYM    DATA     BIT       IT0
      0000008DH   SFRSYM    DATA     BYTE      TH1
      000000A8H.2 SFRSYM    DATA     BIT       EX1
      00000088H.2 SFRSYM    DATA     BIT       IT1
      000000CDH   SFRSYM    DATA     BYTE      TH2
      000000BCH   SFRSYM    DATA     BYTE      SSCONF
      000000A0H   SFRSYM    DATA     BIT       IV0
      000000D0H   SFRSYM    DATA     BIT       P
      000000A0H.1 SFRSYM    DATA     BIT       IV1
      00000098H.7 SFRSYM    DATA     BIT       SM0
      0000008AH   SFRSYM    DATA     BYTE      TL0
      000000A0H.2 SFRSYM    DATA     BIT       IV2
      00000098H.6 SFRSYM    DATA     BIT       SM1
      0000008BH   SFRSYM    DATA     BYTE      TL1
      000000A0H.3 SFRSYM    DATA     BIT       IV3
      000000CCH   SFRSYM    DATA     BYTE      TL2
      000000A0H.4 SFRSYM    DATA     BIT       IV4
      000000A5H   SFRSYM    DATA     BYTE      WUCONF
      000000D0H.3 SFRSYM    DATA     BIT       RS0
      00000088H.4 SFRSYM    DATA     BIT       TR0
      000000D0H.4 SFRSYM    DATA     BIT       RS1
      00000088H.6 SFRSYM    DATA     BIT       TR1
      000000CAH   SFRSYM    DATA     WORD      CRC
      000000A6H   SFRSYM    DATA     BYTE      INTEXP
      000000FAH   SFRSYM    DATA     BYTE      FCR
      000000D9H   SFRSYM    DATA     BYTE      USBSLP
      00000083H   SFRSYM    DATA     BYTE      DPH
      000000C0H.1 SFRSYM    DATA     BIT       RFF
      000000C0H.3 SFRSYM    DATA     BIT       USBWUF
      00000094H   SFRSYM    DATA     BYTE      P0DIR
      00000082H   SFRSYM    DATA     BYTE      DPL
      00000099H   SFRSYM    DATA     BYTE      S0BUF
      00000095H   SFRSYM    DATA     BYTE      P0ALT
      000000B8H.7 SFRSYM    DATA     BIT       EXEN2
      000000BEH   SFRSYM    DATA     BYTE      SSSTAT
      000000A4H   SFRSYM    DATA     BYTE      PWRDWN
      00000098H   SFRSYM    DATA     BYTE      S0CON
      000000B1H   SFRSYM    DATA     BYTE      RSTRES
      000000C8H   SFRSYM    DATA     BYTE      T2CON
      00000092H   SFRSYM    DATA     BYTE      DPS
      000000B8H.4 SFRSYM    DATA     BIT       USB
      000000F8H.5 SFRSYM    DATA     BIT       WEN
      000000F8H   SFRSYM    DATA     BYTE      FSR
      000000B8H.2 SFRSYM    DATA     BIT       SPI
      000000F8H.1 SFRSYM    DATA     BIT       RDEND
      000000C9H   SFRSYM    DATA     BYTE      P0EXP
      0000008EH   SFRSYM    DATA     BYTE      CKCON
      000000E8H   SFRSYM    DATA     BYTE      AESCS
      000000F8H.3 SFRSYM    DATA     BIT       INFEN
LX51 LINKER/LOCATER V4.66.41.0                                                        02/08/2016  23:35:20  PAGE 52


      000000F8H.7 SFRSYM    DATA     BIT       MCDIS
      000000C0H.5 SFRSYM    DATA     BIT       WUF
      000000E5H   SFRSYM    DATA     BYTE      RFDAT
      000000EFH   SFRSYM    DATA     BYTE      ARCON
      000000D0H.5 SFRSYM    DATA     BIT       F0
      000000D0H.1 SFRSYM    DATA     BIT       F1
      000000F8H.6 SFRSYM    DATA     BIT       STP
      000000F2H   SFRSYM    DATA     BYTE      AESIV
      00000090H   SFRSYM    DATA     BYTE      RFCON
      000000D0H   SFRSYM    DATA     BYTE      PSW
      000000B2H   SFRSYM    DATA     BYTE      SMDAT
      000000ADH   SFRSYM    DATA     BYTE      REGXC
      00000098H.2 SFRSYM    DATA     BIT       RB80
      000000E6H   SFRSYM    DATA     BYTE      RFCTL
      000000D8H   SFRSYM    DATA     BYTE      WDCON
      000000C0H   SFRSYM    DATA     BYTE      IRCON
      00000090H.1 SFRSYM    DATA     BIT       RFCSN

      01000FD8H   BLOCK     CODE     ---       LVL=0
      01000FD8H   LINE      ---      ---       #25
      01000FD8H   LINE      ---      ---       #26
      01000FD8H   LINE      ---      ---       #27
      01000FDAH   LINE      ---      ---       #28
      01000FDCH   LINE      ---      ---       #30
      01000FDFH   LINE      ---      ---       #31
      01000FE1H   LINE      ---      ---       #32
      00000007H   SYMBOL    DATA     BYTE      value
      ---         BLOCKEND  ---      ---       LVL=0

      ---         MODULE    ---      ---       HAL_USB
      0200C7D9H   PUBLIC    XDATA    BYTE      usbfrmh
      0200C7DDH   PUBLIC    XDATA    BYTE      usbpair
      0200C7ADH   PUBLIC    XDATA    BYTE      out_ien
      0200C7ACH   PUBLIC    XDATA    BYTE      in_ien
      0200C7E8H   PUBLIC    XDATA    ---       setupbuf
      0200C7DBH   PUBLIC    XDATA    BYTE      fnaddr
      0200C7E1H   PUBLIC    XDATA    BYTE      outisoval
      0200C7E0H   PUBLIC    XDATA    BYTE      inisoval
      0200C7CEH   PUBLIC    XDATA    BYTE      out5cs
      0200C7CCH   PUBLIC    XDATA    BYTE      out4cs
      0200C7BEH   PUBLIC    XDATA    BYTE      in5cs
      0200C7CAH   PUBLIC    XDATA    BYTE      out3cs
      0200C7BCH   PUBLIC    XDATA    BYTE      in4cs
      0200C7C8H   PUBLIC    XDATA    BYTE      out2cs
      0200C7BAH   PUBLIC    XDATA    BYTE      in3cs
      0200C7C6H   PUBLIC    XDATA    BYTE      out1cs
      0200C7B8H   PUBLIC    XDATA    BYTE      in2cs
      0200C7B6H   PUBLIC    XDATA    BYTE      in1cs
      0200C7B4H   PUBLIC    XDATA    BYTE      ep0cs
      0200C7CFH   PUBLIC    XDATA    BYTE      out5bc
      0200C7CDH   PUBLIC    XDATA    BYTE      out4bc
      0200C7BFH   PUBLIC    XDATA    BYTE      in5bc
      0200C7CBH   PUBLIC    XDATA    BYTE      out3bc
      0200C7E2H   PUBLIC    XDATA    BYTE      isostaddr
      0200C7BDH   PUBLIC    XDATA    BYTE      in4bc
      0200C7C9H   PUBLIC    XDATA    BYTE      out2bc
      0200C7BBH   PUBLIC    XDATA    BYTE      in3bc
      0200C7C7H   PUBLIC    XDATA    BYTE      out1bc
      0200C7B9H   PUBLIC    XDATA    BYTE      in2bc
      0200C7C5H   PUBLIC    XDATA    BYTE      out0bc
      0200C7DFH   PUBLIC    XDATA    BYTE      outbulkval
      0200C7B7H   PUBLIC    XDATA    BYTE      in1bc
      0200C440H   PUBLIC    XDATA    ---       out5buf
      0200C7B5H   PUBLIC    XDATA    BYTE      in0bc
      0200C7DEH   PUBLIC    XDATA    BYTE      inbulkval
LX51 LINKER/LOCATER V4.66.41.0                                                        02/08/2016  23:35:20  PAGE 53


      0200C4C0H   PUBLIC    XDATA    ---       out4buf
      0200C480H   PUBLIC    XDATA    ---       in5buf
      0200C540H   PUBLIC    XDATA    ---       out3buf
      0200C500H   PUBLIC    XDATA    ---       in4buf
      0200C5C0H   PUBLIC    XDATA    ---       out2buf
      0200C580H   PUBLIC    XDATA    ---       in3buf
      0200C640H   PUBLIC    XDATA    ---       out1buf
      0200C600H   PUBLIC    XDATA    ---       in2buf
      0200C6C0H   PUBLIC    XDATA    ---       out0buf
      0200C680H   PUBLIC    XDATA    ---       in1buf
      0200C700H   PUBLIC    XDATA    ---       in0buf
      0200C771H   PUBLIC    XDATA    BYTE      out8bcl
      0200C770H   PUBLIC    XDATA    BYTE      out8bch
      0200C788H   PUBLIC    XDATA    BYTE      binstaddr
      0200C7F0H   PUBLIC    XDATA    BYTE      out8addr
      0200C760H   PUBLIC    XDATA    BYTE      out8data
      0200C7F8H   PUBLIC    XDATA    BYTE      in8addr
      0200C768H   PUBLIC    XDATA    BYTE      in8data
      020080BAH   PUBLIC    XDATA    ---       g_hal_usb
      0200C7A8H   PUBLIC    XDATA    BYTE      ivec
      0200C7D6H   PUBLIC    XDATA    BYTE      usbcs
      0200C7A2H   PUBLIC    XDATA    BYTE      zbcout
      0200C7ABH   PUBLIC    XDATA    BYTE      usbirq
      0200C7A0H   PUBLIC    XDATA    BYTE      isoerr
      0200C7D7H   PUBLIC    XDATA    BYTE      togctl
      0200C785H   PUBLIC    XDATA    BYTE      bout5addr
      0200C784H   PUBLIC    XDATA    BYTE      bout4addr
      0200C783H   PUBLIC    XDATA    BYTE      bout3addr
      0200C78DH   PUBLIC    XDATA    BYTE      bin5addr
      0200C782H   PUBLIC    XDATA    BYTE      bout2addr
      0200C78CH   PUBLIC    XDATA    BYTE      bin4addr
      0200C781H   PUBLIC    XDATA    BYTE      bout1addr
      0200C78BH   PUBLIC    XDATA    BYTE      bin3addr
      0200C78AH   PUBLIC    XDATA    BYTE      bin2addr
      0200C7E3H   PUBLIC    XDATA    BYTE      isosize
      0200C789H   PUBLIC    XDATA    BYTE      bin1addr
      0200C7AEH   PUBLIC    XDATA    BYTE      usbien
      0200C7AAH   PUBLIC    XDATA    BYTE      out_irq
      0200C7AFH   PUBLIC    XDATA    BYTE      usbbav
      0200C7A9H   PUBLIC    XDATA    BYTE      in_irq
      0200C7D8H   PUBLIC    XDATA    BYTE      usbfrml
      01001F52H   PUBLIC    CODE     ---       usb_isr
      0100231FH   PUBLIC    CODE     ---       usb_wu_isr
      02008074H   PUBLIC    XDATA    BYTE      ?_hal_usb_send_data?BYTE
      01000D04H   PUBLIC    CODE     ---       _hal_usb_send_data
      010021C8H   PUBLIC    CODE     ---       _hal_usb_endpoint_config
      01001AB0H   PUBLIC    CODE     ---       _hal_usb_endpoint_stall
      02008069H   PUBLIC    XDATA    BYTE      ?_hal_usb_init?BYTE
      01001989H   PUBLIC    CODE     ---       _hal_usb_init
      00000098H.3 SFRSYM    DATA     BIT       TB80
      000000C8H   SFRSYM    DATA     BIT       T2I0
      000000C3H   SFRSYM    DATA     BYTE      CCH1
      000000ABH   SFRSYM    DATA     BYTE      REGXH
      00000080H   SFRSYM    DATA     BYTE      P0
      000000C8H.1 SFRSYM    DATA     BIT       T2I1
      000000C5H   SFRSYM    DATA     BYTE      CCH2
      000000C7H   SFRSYM    DATA     BYTE      CCH3
      00000098H.5 SFRSYM    DATA     BIT       SM20
      000000D0H.6 SFRSYM    DATA     BIT       AC
      000000C2H   SFRSYM    DATA     BYTE      CCL1
      000000ACH   SFRSYM    DATA     BYTE      REGXL
      000000C4H   SFRSYM    DATA     BYTE      CCL2
      000000B3H   SFRSYM    DATA     BYTE      SMCTL
      000000D8H.7 SFRSYM    DATA     BIT       BD
      000000B8H   SFRSYM    DATA     BIT       RFSPI
LX51 LINKER/LOCATER V4.66.41.0                                                        02/08/2016  23:35:20  PAGE 54


      000000A8H.7 SFRSYM    DATA     BIT       EA
      000000CCH   SFRSYM    DATA     WORD      T2
      000000C6H   SFRSYM    DATA     BYTE      CCL3
      000000C8H.3 SFRSYM    DATA     BIT       T2R0
      000000C8H.4 SFRSYM    DATA     BIT       T2R1
      000000A8H   SFRSYM    DATA     BYTE      IEN0
      000000B8H   SFRSYM    DATA     BYTE      IEN1
      00000085H   SFRSYM    DATA     BYTE      DPH1
      0000009AH   SFRSYM    DATA     BYTE      IEN2
      00000084H   SFRSYM    DATA     BYTE      DPL1
      000000C8H.5 SFRSYM    DATA     BIT       I2FR
      000000C8H.6 SFRSYM    DATA     BIT       I3FR
      000000E8H   SFRSYM    DATA     BIT       GO
      000000C0H.7 SFRSYM    DATA     BIT       EXF2
      00000098H.4 SFRSYM    DATA     BIT       REN0
      000000F5H   SFRSYM    DATA     BYTE      AESIA1
      000000C8H.2 SFRSYM    DATA     BIT       T2CM
      000000F6H   SFRSYM    DATA     BYTE      AESIA2
      000000B8H.1 SFRSYM    DATA     BIT       RF
      000000B8H.3 SFRSYM    DATA     BIT       USBWU
      000000B8H.5 SFRSYM    DATA     BIT       WUIRQ
      000000C1H   SFRSYM    DATA     BYTE      CCEN
      000000D0H.7 SFRSYM    DATA     BIT       CY
      000000F3H   SFRSYM    DATA     BYTE      AESD
      000000E8H.1 SFRSYM    DATA     BIT       DECR
      00000090H   SFRSYM    DATA     BIT       RFCE
      000000CBH   SFRSYM    DATA     BYTE      CRCH
      00000081H   SFRSYM    DATA     BYTE      SP
      000000A0H.5 SFRSYM    DATA     BIT       SUSPEND
      000000A0H.7 SFRSYM    DATA     BIT       SWRST
      000000D0H.2 SFRSYM    DATA     BIT       OV
      000000CAH   SFRSYM    DATA     BYTE      CRCL
      000000C8H.7 SFRSYM    DATA     BIT       T2PS
      000000A0H.6 SFRSYM    DATA     BIT       WU
      000000F9H   SFRSYM    DATA     BYTE      FPCR
      00000080H   SFRSYM    DATA     BIT       P00
      000000BAH   SFRSYM    DATA     BYTE      S0RELH
      00000080H.1 SFRSYM    DATA     BIT       P01
      000000C0H.4 SFRSYM    DATA     BIT       USBF
      00000087H   SFRSYM    DATA     BYTE      PCON
      00000080H.3 SFRSYM    DATA     BIT       MCSN
      00000080H.2 SFRSYM    DATA     BIT       P02
      00000080H.3 SFRSYM    DATA     BIT       P03
      000000C0H.2 SFRSYM    DATA     BIT       SPIF
      000000F8H.2 SFRSYM    DATA     BIT       RDIS
      00000080H.4 SFRSYM    DATA     BIT       P04
      000000AAH   SFRSYM    DATA     BYTE      S0RELL
      00000080H.5 SFRSYM    DATA     BIT       P05
      00000089H   SFRSYM    DATA     BYTE      TMOD
      00000088H   SFRSYM    DATA     BYTE      TCON
      000000C2H   SFRSYM    DATA     WORD      CC1
      00000080H.3 SFRSYM    DATA     BIT       SCSN
      000000C4H   SFRSYM    DATA     WORD      CC2
      000000C6H   SFRSYM    DATA     WORD      CC3
      00000090H.2 SFRSYM    DATA     BIT       RFCKEN
      000000F8H   SFRSYM    DATA     BIT       WPEN
      000000F1H   SFRSYM    DATA     BYTE      AESKIN
      00000088H.1 SFRSYM    DATA     BIT       IE0
      000000F8H.4 SFRSYM    DATA     BIT       RDYN
      00000088H.3 SFRSYM    DATA     BIT       IE1
      000000A3H   SFRSYM    DATA     BYTE      CLKCTL
      000000F0H   SFRSYM    DATA     BYTE      B
      000000E9H   SFRSYM    DATA     BYTE      MD0
      000000EAH   SFRSYM    DATA     BYTE      MD1
      000000BDH   SFRSYM    DATA     BYTE      SSDATA
LX51 LINKER/LOCATER V4.66.41.0                                                        02/08/2016  23:35:20  PAGE 55


      000000EBH   SFRSYM    DATA     BYTE      MD2
      000000ECH   SFRSYM    DATA     BYTE      MD3
      000000EDH   SFRSYM    DATA     BYTE      MD4
      000000EEH   SFRSYM    DATA     BYTE      MD5
      000000E0H   SFRSYM    DATA     BYTE      ACC
      000000B5H   SFRSYM    DATA     BYTE      TICKDV
      000000A8H.4 SFRSYM    DATA     BIT       ES0
      000000A8H.1 SFRSYM    DATA     BIT       ET0
      000000A9H   SFRSYM    DATA     BYTE      IP0
      000000A8H.3 SFRSYM    DATA     BIT       ET1
      00000088H.5 SFRSYM    DATA     BIT       TF0
      000000B9H   SFRSYM    DATA     BYTE      IP1
      000000A8H.5 SFRSYM    DATA     BIT       ET2
      00000098H   SFRSYM    DATA     BIT       RI0
      00000088H.7 SFRSYM    DATA     BIT       TF1
      000000C0H   SFRSYM    DATA     BIT       RFSPIF
      000000C0H.6 SFRSYM    DATA     BIT       TF2
      000000A0H   SFRSYM    DATA     BYTE      USBCON
      0000008CH   SFRSYM    DATA     BYTE      TH0
      000000A8H   SFRSYM    DATA     BIT       EX0
      00000098H.1 SFRSYM    DATA     BIT       TI0
      00000088H   SFRSYM    DATA     BIT       IT0
      0000008DH   SFRSYM    DATA     BYTE      TH1
      000000A8H.2 SFRSYM    DATA     BIT       EX1
      00000088H.2 SFRSYM    DATA     BIT       IT1
      000000CDH   SFRSYM    DATA     BYTE      TH2
      000000BCH   SFRSYM    DATA     BYTE      SSCONF
      000000A0H   SFRSYM    DATA     BIT       IV0
      000000D0H   SFRSYM    DATA     BIT       P
      000000A0H.1 SFRSYM    DATA     BIT       IV1
      00000098H.7 SFRSYM    DATA     BIT       SM0
      0000008AH   SFRSYM    DATA     BYTE      TL0
      000000A0H.2 SFRSYM    DATA     BIT       IV2
      00000098H.6 SFRSYM    DATA     BIT       SM1
      0000008BH   SFRSYM    DATA     BYTE      TL1
      000000A0H.3 SFRSYM    DATA     BIT       IV3
      000000CCH   SFRSYM    DATA     BYTE      TL2
      000000A0H.4 SFRSYM    DATA     BIT       IV4
      000000A5H   SFRSYM    DATA     BYTE      WUCONF
      000000D0H.3 SFRSYM    DATA     BIT       RS0
      00000088H.4 SFRSYM    DATA     BIT       TR0
      000000D0H.4 SFRSYM    DATA     BIT       RS1
      00000088H.6 SFRSYM    DATA     BIT       TR1
      000000CAH   SFRSYM    DATA     WORD      CRC
      000000A6H   SFRSYM    DATA     BYTE      INTEXP
      000000FAH   SFRSYM    DATA     BYTE      FCR
      000000D9H   SFRSYM    DATA     BYTE      USBSLP
      00000083H   SFRSYM    DATA     BYTE      DPH
      000000C0H.1 SFRSYM    DATA     BIT       RFF
      000000C0H.3 SFRSYM    DATA     BIT       USBWUF
      00000094H   SFRSYM    DATA     BYTE      P0DIR
      00000082H   SFRSYM    DATA     BYTE      DPL
      00000099H   SFRSYM    DATA     BYTE      S0BUF
      00000095H   SFRSYM    DATA     BYTE      P0ALT
      000000B8H.7 SFRSYM    DATA     BIT       EXEN2
      000000BEH   SFRSYM    DATA     BYTE      SSSTAT
      000000A4H   SFRSYM    DATA     BYTE      PWRDWN
      00000098H   SFRSYM    DATA     BYTE      S0CON
      000000B1H   SFRSYM    DATA     BYTE      RSTRES
      000000C8H   SFRSYM    DATA     BYTE      T2CON
      00000092H   SFRSYM    DATA     BYTE      DPS
      000000B8H.4 SFRSYM    DATA     BIT       USB
      000000F8H.5 SFRSYM    DATA     BIT       WEN
      000000F8H   SFRSYM    DATA     BYTE      FSR
      000000B8H.2 SFRSYM    DATA     BIT       SPI
LX51 LINKER/LOCATER V4.66.41.0                                                        02/08/2016  23:35:20  PAGE 56


      000000F8H.1 SFRSYM    DATA     BIT       RDEND
      000000C9H   SFRSYM    DATA     BYTE      P0EXP
      0000008EH   SFRSYM    DATA     BYTE      CKCON
      000000E8H   SFRSYM    DATA     BYTE      AESCS
      000000F8H.3 SFRSYM    DATA     BIT       INFEN
      000000F8H.7 SFRSYM    DATA     BIT       MCDIS
      000000C0H.5 SFRSYM    DATA     BIT       WUF
      000000E5H   SFRSYM    DATA     BYTE      RFDAT
      000000EFH   SFRSYM    DATA     BYTE      ARCON
      000000D0H.5 SFRSYM    DATA     BIT       F0
      000000D0H.1 SFRSYM    DATA     BIT       F1
      000000F8H.6 SFRSYM    DATA     BIT       STP
      000000F2H   SFRSYM    DATA     BYTE      AESIV
      00000090H   SFRSYM    DATA     BYTE      RFCON
      000000D0H   SFRSYM    DATA     BYTE      PSW
      000000B2H   SFRSYM    DATA     BYTE      SMDAT
      000000ADH   SFRSYM    DATA     BYTE      REGXC
      00000098H.2 SFRSYM    DATA     BIT       RB80
      000000E6H   SFRSYM    DATA     BYTE      RFCTL
      000000D8H   SFRSYM    DATA     BYTE      WDCON
      000000C0H   SFRSYM    DATA     BYTE      IRCON
      00000090H.1 SFRSYM    DATA     BIT       RFCSN
      02008097H   SYMBOL    XDATA    ---       i_packetizer
      01001DF2H   SYMBOL    CODE     ---       packetizer_isr_ep0_in
      0200809CH   SYMBOL    XDATA    ---       i_endpoint_in_isr
      020080ABH   SYMBOL    XDATA    ---       i_endpoint_out_isr
      010022F3H   SYMBOL    CODE     ---       isr_usbreset
      010022B5H   SYMBOL    CODE     ---       isr_suspend
      01002197H   SYMBOL    CODE     ---       _usb_process_ep_response
      01001DCEH   SYMBOL    CODE     ---       _packetize
      020080D7H   SYMBOL    XDATA    ---       req
      01001AF8H   SYMBOL    CODE     ---       isr_sudav
      01001E7CH   SYMBOL    CODE     ---       usb_process_get_status
      020080DDH   SYMBOL    XDATA    BYTE      stall_data_size0
      01001C57H   SYMBOL    CODE     ---       usb_process_dev_req_cb_response
      01001CDDH   SYMBOL    CODE     ---       usb_process_get_descriptor

      01001989H   BLOCK     CODE     ---       LVL=0
      01001989H   LINE      ---      ---       #57
      01001994H   LINE      ---      ---       #58
      01001994H   LINE      ---      ---       #60
      010019A2H   LINE      ---      ---       #61
      010019B0H   LINE      ---      ---       #62
      010019BEH   LINE      ---      ---       #65
      010019C4H   LINE      ---      ---       #66
      010019C7H   LINE      ---      ---       #67
      010019CBH   LINE      ---      ---       #68
      010019CFH   LINE      ---      ---       #71
      010019D5H   LINE      ---      ---       #72
      010019DAH   LINE      ---      ---       #73
      010019DEH   LINE      ---      ---       #76
      010019E2H   LINE      ---      ---       #77
      010019E4H   LINE      ---      ---       #80
      010019F9H   LINE      ---      ---       #81
      01001A0EH   LINE      ---      ---       #82
      01001A23H   LINE      ---      ---       #83
      01001A38H   LINE      ---      ---       #86
      01001A3BH   LINE      ---      ---       #87
      01001A3BH   LINE      ---      ---       #88
      01001A42H   LINE      ---      ---       #89
      01001A49H   LINE      ---      ---       #90
      01001A50H   LINE      ---      ---       #91
      01001A50H   LINE      ---      ---       #94
      01001A52H   LINE      ---      ---       #95
      01001A54H   LINE      ---      ---       #97
LX51 LINKER/LOCATER V4.66.41.0                                                        02/08/2016  23:35:20  PAGE 57


      01001A5AH   LINE      ---      ---       #99
      01001A60H   LINE      ---      ---       #100
      01001A66H   LINE      ---      ---       #101
      01001A6CH   LINE      ---      ---       #102
      01001A72H   LINE      ---      ---       #105
      01001A78H   LINE      ---      ---       #106
      01001A7CH   LINE      ---      ---       #107
      01001A80H   LINE      ---      ---       #108
      01001A84H   LINE      ---      ---       #109
      01001A88H   LINE      ---      ---       #111
      01001A8EH   LINE      ---      ---       #112
      01001A92H   LINE      ---      ---       #113
      01001A96H   LINE      ---      ---       #114
      01001A9AH   LINE      ---      ---       #115
      01001A9EH   LINE      ---      ---       #116
      01001AA2H   LINE      ---      ---       #119
      01001AA8H   LINE      ---      ---       #120
      01001AAAH   LINE      ---      ---       #121
      01001AADH   LINE      ---      ---       #122
      01001AAFH   LINE      ---      ---       #123
      00000007H   SYMBOL    DATA     BYTE      usb_disconnect
      0200806AH   SYMBOL    XDATA    ---       device_req
      0200806DH   SYMBOL    XDATA    ---       reset
      02008070H   SYMBOL    XDATA    ---       resume
      02008073H   SYMBOL    XDATA    ---       suspend
      ---         BLOCKEND  ---      ---       LVL=0

      01001AB0H   BLOCK     CODE     ---       LVL=0
      01001AB0H   LINE      ---      ---       #125
      01001AB0H   LINE      ---      ---       #126
      00000007H   SYMBOL    DATA     BYTE      ep_num
      00000005H   SYMBOL    DATA     BYTE      stall
      01001AB0H   BLOCK     CODE     NEAR LAB  LVL=1
      01001AB0H   LINE      ---      ---       #130
      01001AB7H   LINE      ---      ---       #133
      01001ABBH   LINE      ---      ---       #134
      01001ABBH   LINE      ---      ---       #136
      01001AC4H   LINE      ---      ---       #137
      01001AC6H   LINE      ---      ---       #139
      01001AC6H   LINE      ---      ---       #141
      01001ADAH   LINE      ---      ---       #142
      01001ADAH   LINE      ---      ---       #144
      01001AE1H   LINE      ---      ---       #145
      01001AE1H   LINE      ---      ---       #147
      01001AECH   LINE      ---      ---       #148
      01001AEDH   LINE      ---      ---       #150
      01001AEDH   LINE      ---      ---       #152
      01001AF7H   LINE      ---      ---       #153
      01001AF7H   LINE      ---      ---       #154
      00000006H   SYMBOL    DATA     BYTE      temp
      02008093H   SYMBOL    XDATA    ---       cs_ptr
      ---         BLOCKEND  CODE     ---       LVL=1
      ---         BLOCKEND  CODE     ---       LVL=0

      010021C8H   BLOCK     CODE     ---       LVL=0
      010021C8H   LINE      ---      ---       #161
      010021D5H   LINE      ---      ---       #162
      00000004H   SYMBOL    DATA     BYTE      ep_num
      00000005H   SYMBOL    DATA     BYTE      ep_size
      02008069H   SYMBOL    XDATA    ---       endpoint_isr
      010021D5H   BLOCK     CODE     NEAR LAB  LVL=1
      010021D5H   LINE      ---      ---       #164
      010021DBH   LINE      ---      ---       #165
      010021EAH   LINE      ---      ---       #168
      010021EAH   LINE      ---      ---       #170
LX51 LINKER/LOCATER V4.66.41.0                                                        02/08/2016  23:35:20  PAGE 58


      010021EEH   LINE      ---      ---       #171
      010021EEH   LINE      ---      ---       #172
      0100220FH   LINE      ---      ---       #173
      01002220H   LINE      ---      ---       #174
      01002220H   LINE      ---      ---       #176
      0100222DH   LINE      ---      ---       #177
      01002233H   LINE      ---      ---       #178
      01002234H   LINE      ---      ---       #180
      01002234H   LINE      ---      ---       #182
      01002242H   LINE      ---      ---       #183
      01002245H   LINE      ---      ---       #184
      01002245H   LINE      ---      ---       #185
      01002247H   LINE      ---      ---       #187
      01002247H   LINE      ---      ---       #188
      01002268H   LINE      ---      ---       #189
      01002279H   LINE      ---      ---       #190
      01002279H   LINE      ---      ---       #192
      01002286H   LINE      ---      ---       #193
      0100228CH   LINE      ---      ---       #196
      0100229CH   LINE      ---      ---       #197
      0100229FH   LINE      ---      ---       #198
      010022A0H   LINE      ---      ---       #200
      010022A0H   LINE      ---      ---       #202
      010022AEH   LINE      ---      ---       #203
      010022B4H   LINE      ---      ---       #204
      010022B4H   LINE      ---      ---       #205
      010022B4H   LINE      ---      ---       #206
      00000082H   SYMBOL    DATA     ---       bc_ptr
      00000006H   SYMBOL    DATA     BYTE      temp
      0200806CH   SYMBOL    XDATA    BYTE      stemp
      ---         BLOCKEND  CODE     ---       LVL=1
      ---         BLOCKEND  CODE     ---       LVL=0

      01000D04H   BLOCK     CODE     ---       LVL=0
      01000D04H   LINE      ---      ---       #230
      01000D14H   LINE      ---      ---       #231
      02008074H   SYMBOL    XDATA    BYTE      ep_num
      02008075H   SYMBOL    XDATA    ---       array
      02008078H   SYMBOL    XDATA    BYTE      count
      01000D14H   BLOCK     CODE     NEAR LAB  LVL=1
      01000D14H   LINE      ---      ---       #238
      01000D2DH   LINE      ---      ---       #239
      01000D47H   LINE      ---      ---       #242
      01000D58H   LINE      ---      ---       #243
      01000D58H   LINE      ---      ---       #244
      01000D7CH   LINE      ---      ---       #245
      01000D84H   LINE      ---      ---       #248
      01000D96H   LINE      ---      ---       #249
      02008079H   SYMBOL    XDATA    BYTE      i
      0200807AH   SYMBOL    XDATA    ---       buf_ptr
      0200807CH   SYMBOL    XDATA    ---       bc_ptr
      ---         BLOCKEND  CODE     ---       LVL=1
      ---         BLOCKEND  CODE     ---       LVL=0

      01001DCEH   BLOCK     CODE     ---       LVL=0
      01001DCEH   LINE      ---      ---       #266
      01001DCEH   LINE      ---      ---       #267
      01001DCEH   LINE      ---      ---       #268
      01001DD9H   LINE      ---      ---       #269
      01001DDCH   LINE      ---      ---       #270
      01001DF1H   LINE      ---      ---       #271
      00000001H   SYMBOL    DATA     ---       data_ptr
      00000005H   SYMBOL    DATA     BYTE      data_size
      ---         BLOCKEND  ---      ---       LVL=0

LX51 LINKER/LOCATER V4.66.41.0                                                        02/08/2016  23:35:20  PAGE 59


      01001DF2H   BLOCK     CODE     ---       LVL=0
      01001DF2H   LINE      ---      ---       #274
      01001DF2H   LINE      ---      ---       #275
      01001DF2H   BLOCK     CODE     NEAR LAB  LVL=1
      01001DF2H   LINE      ---      ---       #279
      01001DF9H   LINE      ---      ---       #280
      01001DF9H   LINE      ---      ---       #281
      01001E00H   LINE      ---      ---       #282
      01001E00H   LINE      ---      ---       #283
      01001E07H   LINE      ---      ---       #284
      01001E08H   LINE      ---      ---       #286
      01001E08H   LINE      ---      ---       #287
      01001E0EH   LINE      ---      ---       #288
      01001E13H   LINE      ---      ---       #289
      01001E19H   LINE      ---      ---       #290
      01001E1AH   LINE      ---      ---       #292
      01001E1AH   LINE      ---      ---       #294
      01001E2BH   LINE      ---      ---       #297
      01001E32H   LINE      ---      ---       #298
      01001E32H   LINE      ---      ---       #299
      01001E52H   LINE      ---      ---       #300
      01001E55H   LINE      ---      ---       #302
      01001E5FH   LINE      ---      ---       #303
      01001E65H   LINE      ---      ---       #306
      01001E6AH   LINE      ---      ---       #309
      01001E74H   LINE      ---      ---       #310
      01001E7BH   LINE      ---      ---       #313
      00000007H   SYMBOL    DATA     BYTE      size
      00000006H   SYMBOL    DATA     BYTE      i
      ---         BLOCKEND  CODE     ---       LVL=1
      ---         BLOCKEND  CODE     ---       LVL=0

      01001C57H   BLOCK     CODE     ---       LVL=0
      01001C57H   LINE      ---      ---       #316
      01001C57H   LINE      ---      ---       #317
      01001C57H   BLOCK     CODE     NEAR LAB  LVL=1
      01001C57H   LINE      ---      ---       #320
      01001C98H   LINE      ---      ---       #322
      01001CA9H   LINE      ---      ---       #323
      01001CA9H   LINE      ---      ---       #324
      01001CA9H   LINE      ---      ---       #325
      01001CC6H   LINE      ---      ---       #326
      01001CC8H   LINE      ---      ---       #327
      01001CC8H   LINE      ---      ---       #328
      01001CC8H   LINE      ---      ---       #329
      01001CC8H   LINE      ---      ---       #330
      01001CC8H   LINE      ---      ---       #331
      01001CC8H   LINE      ---      ---       #332
      01001CCEH   LINE      ---      ---       #333
      01001CCFH   LINE      ---      ---       #334
      01001CCFH   LINE      ---      ---       #335
      01001CD5H   LINE      ---      ---       #336
      01001CD6H   LINE      ---      ---       #337
      01001CD6H   LINE      ---      ---       #338
      01001CD6H   LINE      ---      ---       #339
      01001CDCH   LINE      ---      ---       #340
      01001CDCH   LINE      ---      ---       #341
      01001CDCH   LINE      ---      ---       #342
      02008093H   SYMBOL    XDATA    ---       data_ptr
      02008096H   SYMBOL    XDATA    BYTE      data_size
      00000007H   SYMBOL    DATA     BYTE      ret
      ---         BLOCKEND  CODE     ---       LVL=1
      ---         BLOCKEND  CODE     ---       LVL=0

      01001E7CH   BLOCK     CODE     ---       LVL=0
LX51 LINKER/LOCATER V4.66.41.0                                                        02/08/2016  23:35:20  PAGE 60


      01001E7CH   LINE      ---      ---       #344
      01001E7CH   LINE      ---      ---       #345
      01001E7CH   BLOCK     CODE     NEAR LAB  LVL=1
      01001E7CH   LINE      ---      ---       #348
      01001E84H   LINE      ---      ---       #349
      01001E84H   LINE      ---      ---       #350
      01001E8AH   LINE      ---      ---       #351
      01001E8AH   LINE      ---      ---       #352
      01001E8AH   LINE      ---      ---       #353
      01001E8CH   LINE      ---      ---       #355
      01001E8CH   LINE      ---      ---       #356
      01001EA8H   LINE      ---      ---       #358
      01001EA8H   LINE      ---      ---       #359
      01001EA8H   LINE      ---      ---       #360
      01001EAAH   LINE      ---      ---       #361
      01001EB4H   LINE      ---      ---       #362
      01001EB4H   LINE      ---      ---       #363
      01001EB8H   LINE      ---      ---       #364
      01001EC9H   LINE      ---      ---       #365
      01001EC9H   LINE      ---      ---       #366
      01001EC9H   LINE      ---      ---       #367
      01001ED0H   LINE      ---      ---       #368
      01001ED0H   LINE      ---      ---       #369
      01001ED6H   LINE      ---      ---       #370
      01001ED8H   LINE      ---      ---       #372
      01001ED8H   LINE      ---      ---       #373
      01001EDDH   LINE      ---      ---       #374
      01001EDDH   LINE      ---      ---       #376
      01001EFDH   LINE      ---      ---       #377
      01001EFDH   LINE      ---      ---       #378
      01001EFFH   LINE      ---      ---       #379
      01001EFFH   LINE      ---      ---       #380
      01001F00H   LINE      ---      ---       #381
      01001F00H   LINE      ---      ---       #382
      01001F02H   LINE      ---      ---       #383
      01001F02H   LINE      ---      ---       #384
      01001F09H   LINE      ---      ---       #385
      01001F09H   LINE      ---      ---       #386
      01001F14H   LINE      ---      ---       #387
      01001F16H   LINE      ---      ---       #389
      01001F16H   LINE      ---      ---       #390
      01001F30H   LINE      ---      ---       #391
      01001F30H   LINE      ---      ---       #393
      01001F42H   LINE      ---      ---       #394
      01001F48H   LINE      ---      ---       #395
      01001F49H   LINE      ---      ---       #396
      01001F49H   LINE      ---      ---       #397
      01001F49H   LINE      ---      ---       #398
      01001F4BH   LINE      ---      ---       #399
      01001F4BH   LINE      ---      ---       #400
      01001F4BH   LINE      ---      ---       #402
      01001F4BH   LINE      ---      ---       #404
      01001F51H   LINE      ---      ---       #405
      01001F51H   LINE      ---      ---       #406
      02008093H   SYMBOL    XDATA    ---       ptr
      ---         BLOCKEND  CODE     ---       LVL=1
      ---         BLOCKEND  CODE     ---       LVL=0

      01001CDDH   BLOCK     CODE     ---       LVL=0
      01001CDDH   LINE      ---      ---       #408
      01001CDDH   LINE      ---      ---       #409
      01001CDDH   LINE      ---      ---       #411
      01001CF4H   LINE      ---      ---       #412
      01001CF4H   LINE      ---      ---       #413
      01001CF4H   LINE      ---      ---       #414
LX51 LINKER/LOCATER V4.66.41.0                                                        02/08/2016  23:35:20  PAGE 61


      01001D0DH   LINE      ---      ---       #416
      01001D0DH   LINE      ---      ---       #417
      01001D0FH   LINE      ---      ---       #418
      01001D0FH   LINE      ---      ---       #420
      01001D28H   LINE      ---      ---       #422
      01001D28H   LINE      ---      ---       #423
      01001D2AH   LINE      ---      ---       #424
      01001D2AH   LINE      ---      ---       #426
      01001D31H   LINE      ---      ---       #427
      01001D31H   LINE      ---      ---       #428
      01001D45H   LINE      ---      ---       #429
      01001D45H   LINE      ---      ---       #430
      01001D47H   LINE      ---      ---       #432
      01001D47H   LINE      ---      ---       #433
      01001D4EH   LINE      ---      ---       #434
      01001D4EH   LINE      ---      ---       #435
      01001DC3H   LINE      ---      ---       #437
      01001DC5H   LINE      ---      ---       #438
      01001DC5H   LINE      ---      ---       #440
      01001DC5H   LINE      ---      ---       #445
      01001DC5H   LINE      ---      ---       #446
      01001DC5H   LINE      ---      ---       #447
      01001DC5H   LINE      ---      ---       #448
      01001DC5H   LINE      ---      ---       #449
      01001DC5H   LINE      ---      ---       #450
      01001DCBH   LINE      ---      ---       #451
      01001DCCH   LINE      ---      ---       #452
      01001DCCH   LINE      ---      ---       #453
      ---         BLOCKEND  ---      ---       LVL=0

      01001AF8H   BLOCK     CODE     ---       LVL=0
      01001AF8H   LINE      ---      ---       #458
      01001AF8H   LINE      ---      ---       #459
      01001AF8H   LINE      ---      ---       #461
      01001B00H   LINE      ---      ---       #462
      01001B08H   LINE      ---      ---       #463
      01001B10H   LINE      ---      ---       #464
      01001B18H   LINE      ---      ---       #465
      01001B20H   LINE      ---      ---       #466
      01001B28H   LINE      ---      ---       #467
      01001B31H   LINE      ---      ---       #468
      01001B31H   LINE      ---      ---       #469
      01001B37H   LINE      ---      ---       #470
      01001B37H   LINE      ---      ---       #473
      01001B41H   LINE      ---      ---       #474
      01001B41H   LINE      ---      ---       #475
      01001B72H   LINE      ---      ---       #476
      01001B72H   LINE      ---      ---       #477
      01001B72H   LINE      ---      ---       #478
      01001B74H   LINE      ---      ---       #479
      01001B74H   LINE      ---      ---       #480
      01001B74H   LINE      ---      ---       #481
      01001B76H   LINE      ---      ---       #482
      01001B76H   LINE      ---      ---       #483
      01001B76H   LINE      ---      ---       #484
      01001B76H   LINE      ---      ---       #485
      01001B82H   LINE      ---      ---       #486
      01001B82H   LINE      ---      ---       #487
      01001B82H   LINE      ---      ---       #488
      01001B89H   LINE      ---      ---       #489
      01001B89H   LINE      ---      ---       #490
      01001B93H   LINE      ---      ---       #491
      01001B99H   LINE      ---      ---       #493
      01001B9DH   LINE      ---      ---       #494
      01001B9DH   LINE      ---      ---       #495
LX51 LINKER/LOCATER V4.66.41.0                                                        02/08/2016  23:35:20  PAGE 62


      01001B9FH   LINE      ---      ---       #497
      01001B9FH   LINE      ---      ---       #498
      01001B9FH   LINE      ---      ---       #499
      01001B9FH   LINE      ---      ---       #500
      01001BA1H   LINE      ---      ---       #502
      01001BA1H   LINE      ---      ---       #503
      01001BA7H   LINE      ---      ---       #504
      01001BA7H   LINE      ---      ---       #505
      01001BB1H   LINE      ---      ---       #506
      01001BB7H   LINE      ---      ---       #508
      01001BBDH   LINE      ---      ---       #509
      01001BBDH   LINE      ---      ---       #510
      01001BBFH   LINE      ---      ---       #512
      01001BBFH   LINE      ---      ---       #513
      01001BBFH   LINE      ---      ---       #514
      01001BBFH   LINE      ---      ---       #515
      01001BC1H   LINE      ---      ---       #516
      01001BC1H   LINE      ---      ---       #517
      01001BC1H   LINE      ---      ---       #518
      01001BC1H   LINE      ---      ---       #519
      01001BC3H   LINE      ---      ---       #520
      01001BC3H   LINE      ---      ---       #521
      01001BC3H   LINE      ---      ---       #523
      01001BC3H   LINE      ---      ---       #524
      01001BC9H   LINE      ---      ---       #525
      01001BCEH   LINE      ---      ---       #526
      01001BCFH   LINE      ---      ---       #527
      01001BCFH   LINE      ---      ---       #528
      01001BDAH   LINE      ---      ---       #529
      01001BDAH   LINE      ---      ---       #530
      01001BDAH   LINE      ---      ---       #531
      01001BDFH   LINE      ---      ---       #532
      01001BE4H   LINE      ---      ---       #533
      01001BE5H   LINE      ---      ---       #534
      01001BE5H   LINE      ---      ---       #535
      01001BE8H   LINE      ---      ---       #536
      01001BE8H   LINE      ---      ---       #537
      01001BEAH   LINE      ---      ---       #538
      01001BEAH   LINE      ---      ---       #539
      01001BEAH   LINE      ---      ---       #540
      01001BECH   LINE      ---      ---       #541
      01001BECH   LINE      ---      ---       #542
      01001BECH   LINE      ---      ---       #543
      01001BECH   LINE      ---      ---       #544
      01001BF6H   LINE      ---      ---       #545
      01001BF6H   LINE      ---      ---       #546
      01001BF6H   LINE      ---      ---       #547
      01001BFCH   LINE      ---      ---       #548
      01001C01H   LINE      ---      ---       #549
      01001C07H   LINE      ---      ---       #550
      01001C08H   LINE      ---      ---       #551
      01001C08H   LINE      ---      ---       #552
      01001C0EH   LINE      ---      ---       #553
      01001C15H   LINE      ---      ---       #554
      01001C19H   LINE      ---      ---       #555
      01001C1EH   LINE      ---      ---       #556
      01001C1FH   LINE      ---      ---       #557
      01001C1FH   LINE      ---      ---       #558
      01001C1FH   LINE      ---      ---       #559
      01001C21H   LINE      ---      ---       #560
      01001C21H   LINE      ---      ---       #561
      01001C21H   LINE      ---      ---       #562
      01001C21H   LINE      ---      ---       #563
      01001C29H   LINE      ---      ---       #564
      01001C2FH   LINE      ---      ---       #565
LX51 LINKER/LOCATER V4.66.41.0                                                        02/08/2016  23:35:20  PAGE 63


      01001C30H   LINE      ---      ---       #566
      01001C30H   LINE      ---      ---       #567
      01001C30H   LINE      ---      ---       #568
      01001C30H   LINE      ---      ---       #569
      01001C30H   LINE      ---      ---       #570
      01001C30H   LINE      ---      ---       #571
      01001C32H   LINE      ---      ---       #572
      01001C32H   LINE      ---      ---       #573
      01001C32H   LINE      ---      ---       #575
      01001C3DH   LINE      ---      ---       #576
      01001C3DH   LINE      ---      ---       #577
      01001C47H   LINE      ---      ---       #578
      01001C47H   LINE      ---      ---       #581
      01001C4DH   LINE      ---      ---       #582
      01001C4EH   LINE      ---      ---       #584
      01001C4EH   LINE      ---      ---       #585
      01001C50H   LINE      ---      ---       #586
      01001C50H   LINE      ---      ---       #588
      01001C50H   LINE      ---      ---       #590
      01001C50H   LINE      ---      ---       #591
      01001C56H   LINE      ---      ---       #592
      01001C56H   LINE      ---      ---       #593
      ---         BLOCKEND  ---      ---       LVL=0

      010022B5H   BLOCK     CODE     ---       LVL=0
      010022B5H   LINE      ---      ---       #595
      010022B5H   LINE      ---      ---       #596
      010022B5H   BLOCK     CODE     NEAR LAB  LVL=1
      010022B5H   LINE      ---      ---       #597
      010022B7H   LINE      ---      ---       #598
      010022BEH   LINE      ---      ---       #600
      010022C5H   LINE      ---      ---       #601
      010022C5H   LINE      ---      ---       #602
      010022CCH   LINE      ---      ---       #603
      010022CCH   LINE      ---      ---       #604
      010022CDH   LINE      ---      ---       #605
      010022CDH   LINE      ---      ---       #606
      010022CDH   LINE      ---      ---       #608
      010022D3H   LINE      ---      ---       #610
      010022E1H   LINE      ---      ---       #611
      010022E1H   LINE      ---      ---       #612
      010022F2H   LINE      ---      ---       #613
      010022F2H   LINE      ---      ---       #614
      00000005H   SYMBOL    DATA     BYTE      allow_remote_wu
      ---         BLOCKEND  CODE     ---       LVL=1
      ---         BLOCKEND  CODE     ---       LVL=0

      010022F3H   BLOCK     CODE     ---       LVL=0
      010022F3H   LINE      ---      ---       #616
      010022F3H   LINE      ---      ---       #617
      010022F3H   LINE      ---      ---       #618
      010022F9H   LINE      ---      ---       #619
      010022FEH   LINE      ---      ---       #620
      01002300H   LINE      ---      ---       #621
      01002304H   LINE      ---      ---       #622
      0100231EH   LINE      ---      ---       #623
      ---         BLOCKEND  ---      ---       LVL=0

      0100231FH   BLOCK     CODE     ---       LVL=0
      0100233CH   LINE      ---      ---       #626
      0100233CH   BLOCK     CODE     NEAR LAB  LVL=1
      0100233CH   LINE      ---      ---       #636
      01002343H   LINE      ---      ---       #637
      01002343H   LINE      ---      ---       #639
      01002346H   LINE      ---      ---       #642
LX51 LINKER/LOCATER V4.66.41.0                                                        02/08/2016  23:35:20  PAGE 64


      0100234DH   LINE      ---      ---       #643
      0100234DH   LINE      ---      ---       #646
      01002354H   LINE      ---      ---       #649
      01002355H   LINE      ---      ---       #650
      01002356H   LINE      ---      ---       #652
      01002357H   LINE      ---      ---       #655
      01002359H   LINE      ---      ---       #658
      0100235BH   LINE      ---      ---       #662
      0100235CH   LINE      ---      ---       #666
      01002363H   LINE      ---      ---       #669
      0100236AH   LINE      ---      ---       #670
      0100236AH   LINE      ---      ---       #671
      0100236CH   LINE      ---      ---       #673
      0100236CH   LINE      ---      ---       #675
      01002373H   LINE      ---      ---       #676
      01002373H   LINE      ---      ---       #678
      0100237DH   LINE      ---      ---       #679
      0100237DH   LINE      ---      ---       #680
      01002380H   LINE      ---      ---       #681
      01002382H   LINE      ---      ---       #683
      01002382H   LINE      ---      ---       #684
      01002385H   LINE      ---      ---       #685
      01002385H   LINE      ---      ---       #688
      01002391H   LINE      ---      ---       #689
      00000007H   SYMBOL    DATA     BYTE      t
      ---         BLOCKEND  CODE     ---       LVL=1
      ---         BLOCKEND  CODE     ---       LVL=0

      01002197H   BLOCK     CODE     ---       LVL=0
      01002197H   LINE      ---      ---       #692
      0100219DH   LINE      ---      ---       #693
      0100219DH   LINE      ---      ---       #694
      010021A1H   LINE      ---      ---       #695
      010021A1H   LINE      ---      ---       #696
      010021A4H   LINE      ---      ---       #697
      010021A5H   LINE      ---      ---       #698
      010021A9H   LINE      ---      ---       #699
      010021A9H   LINE      ---      ---       #700
      010021B0H   LINE      ---      ---       #701
      010021B1H   LINE      ---      ---       #702
      010021B8H   LINE      ---      ---       #703
      010021B8H   LINE      ---      ---       #704
      010021BFH   LINE      ---      ---       #705
      010021C0H   LINE      ---      ---       #706
      010021C3H   LINE      ---      ---       #707
      010021C3H   LINE      ---      ---       #708
      010021C4H   LINE      ---      ---       #709
      010021C5H   LINE      ---      ---       #711
      010021C5H   LINE      ---      ---       #712
      010021C7H   LINE      ---      ---       #713
      010021C7H   LINE      ---      ---       #714
      00000001H   SYMBOL    DATA     BYTE      ret
      00000004H   SYMBOL    DATA     ---       cs_ptr
      00000082H   SYMBOL    DATA     ---       bc_ptr
      ---         BLOCKEND  ---      ---       LVL=0

      01001F52H   BLOCK     CODE     ---       LVL=0
      01001F6FH   LINE      ---      ---       #716
      01001F6FH   BLOCK     CODE     NEAR LAB  LVL=1
      01001F6FH   LINE      ---      ---       #724
      01001FADH   LINE      ---      ---       #725
      01001FADH   LINE      ---      ---       #726
      01001FADH   LINE      ---      ---       #727
      01001FB3H   LINE      ---      ---       #728
      01001FB5H   LINE      ---      ---       #729
LX51 LINKER/LOCATER V4.66.41.0                                                        02/08/2016  23:35:20  PAGE 65


      01001FB8H   LINE      ---      ---       #730
      01001FB8H   LINE      ---      ---       #731
      01001FBEH   LINE      ---      ---       #732
      01001FC1H   LINE      ---      ---       #733
      01001FC1H   LINE      ---      ---       #734
      01001FC7H   LINE      ---      ---       #735
      01001FD0H   LINE      ---      ---       #736
      01001FD2H   LINE      ---      ---       #737
      01001FD4H   LINE      ---      ---       #738
      01001FD8H   LINE      ---      ---       #739
      01001FDBH   LINE      ---      ---       #740
      01001FDBH   LINE      ---      ---       #741
      01001FE1H   LINE      ---      ---       #742
      01001FE4H   LINE      ---      ---       #743
      01001FE7H   LINE      ---      ---       #744
      01001FE7H   LINE      ---      ---       #745
      01001FEDH   LINE      ---      ---       #746
      01001FF0H   LINE      ---      ---       #747
      01001FF3H   LINE      ---      ---       #748
      01001FF3H   LINE      ---      ---       #749
      01001FF9H   LINE      ---      ---       #750
      01001FFBH   LINE      ---      ---       #751
      01001FFEH   LINE      ---      ---       #752
      01001FFEH   LINE      ---      ---       #753
      01002004H   LINE      ---      ---       #754
      01002009H   LINE      ---      ---       #755
      0100200CH   LINE      ---      ---       #756
      0100200FH   LINE      ---      ---       #757
      0100200FH   LINE      ---      ---       #758
      0100200FH   LINE      ---      ---       #759
      0100200FH   LINE      ---      ---       #760
      0100200FH   LINE      ---      ---       #761
      0100200FH   LINE      ---      ---       #763
      0100201EH   LINE      ---      ---       #765
      0100202FH   LINE      ---      ---       #767
      01002046H   LINE      ---      ---       #768
      01002063H   LINE      ---      ---       #769
      0100207DH   LINE      ---      ---       #772
      010020B4H   LINE      ---      ---       #773
      010020B4H   LINE      ---      ---       #774
      010020B6H   LINE      ---      ---       #775
      010020B6H   LINE      ---      ---       #776
      010020B6H   LINE      ---      ---       #777
      010020B6H   LINE      ---      ---       #778
      010020B6H   LINE      ---      ---       #779
      010020B6H   LINE      ---      ---       #781
      010020C5H   LINE      ---      ---       #784
      010020D6H   LINE      ---      ---       #786
      010020EDH   LINE      ---      ---       #787
      01002108H   LINE      ---      ---       #788
      01002120H   LINE      ---      ---       #791
      0100216CH   LINE      ---      ---       #792
      0100217CH   LINE      ---      ---       #793
      0100217CH   LINE      ---      ---       #794
      0100217CH   LINE      ---      ---       #795
      0100217CH   LINE      ---      ---       #796
      0100217CH   LINE      ---      ---       #797
      0200808BH   SYMBOL    XDATA    BYTE      ep
      0200808CH   SYMBOL    XDATA    BYTE      ret
      0200808DH   SYMBOL    XDATA    ---       cs_ptr
      0200808FH   SYMBOL    XDATA    ---       buf_ptr
      02008091H   SYMBOL    XDATA    ---       bc_ptr
      ---         BLOCKEND  CODE     ---       LVL=1
      ---         BLOCKEND  CODE     ---       LVL=0

LX51 LINKER/LOCATER V4.66.41.0                                                        02/08/2016  23:35:20  PAGE 66


      ---         MODULE    ---      ---       HAL_USB_HID
      01000933H   PUBLIC    CODE     ---       _?hal_usb_hid_device_req_proc
      00000098H.3 SFRSYM    DATA     BIT       TB80
      000000C8H   SFRSYM    DATA     BIT       T2I0
      000000C3H   SFRSYM    DATA     BYTE      CCH1
      000000ABH   SFRSYM    DATA     BYTE      REGXH
      00000080H   SFRSYM    DATA     BYTE      P0
      000000C8H.1 SFRSYM    DATA     BIT       T2I1
      000000C5H   SFRSYM    DATA     BYTE      CCH2
      000000C7H   SFRSYM    DATA     BYTE      CCH3
      00000098H.5 SFRSYM    DATA     BIT       SM20
      000000D0H.6 SFRSYM    DATA     BIT       AC
      000000C2H   SFRSYM    DATA     BYTE      CCL1
      000000ACH   SFRSYM    DATA     BYTE      REGXL
      000000C4H   SFRSYM    DATA     BYTE      CCL2
      000000B3H   SFRSYM    DATA     BYTE      SMCTL
      000000D8H.7 SFRSYM    DATA     BIT       BD
      000000B8H   SFRSYM    DATA     BIT       RFSPI
      000000A8H.7 SFRSYM    DATA     BIT       EA
      000000CCH   SFRSYM    DATA     WORD      T2
      000000C6H   SFRSYM    DATA     BYTE      CCL3
      000000C8H.3 SFRSYM    DATA     BIT       T2R0
      000000C8H.4 SFRSYM    DATA     BIT       T2R1
      000000A8H   SFRSYM    DATA     BYTE      IEN0
      000000B8H   SFRSYM    DATA     BYTE      IEN1
      00000085H   SFRSYM    DATA     BYTE      DPH1
      0000009AH   SFRSYM    DATA     BYTE      IEN2
      00000084H   SFRSYM    DATA     BYTE      DPL1
      000000C8H.5 SFRSYM    DATA     BIT       I2FR
      000000C8H.6 SFRSYM    DATA     BIT       I3FR
      000000E8H   SFRSYM    DATA     BIT       GO
      000000C0H.7 SFRSYM    DATA     BIT       EXF2
      00000098H.4 SFRSYM    DATA     BIT       REN0
      000000F5H   SFRSYM    DATA     BYTE      AESIA1
      000000C8H.2 SFRSYM    DATA     BIT       T2CM
      000000F6H   SFRSYM    DATA     BYTE      AESIA2
      000000B8H.1 SFRSYM    DATA     BIT       RF
      000000B8H.3 SFRSYM    DATA     BIT       USBWU
      000000B8H.5 SFRSYM    DATA     BIT       WUIRQ
      000000C1H   SFRSYM    DATA     BYTE      CCEN
      000000D0H.7 SFRSYM    DATA     BIT       CY
      000000F3H   SFRSYM    DATA     BYTE      AESD
      000000E8H.1 SFRSYM    DATA     BIT       DECR
      00000090H   SFRSYM    DATA     BIT       RFCE
      000000CBH   SFRSYM    DATA     BYTE      CRCH
      00000081H   SFRSYM    DATA     BYTE      SP
      000000A0H.5 SFRSYM    DATA     BIT       SUSPEND
      000000A0H.7 SFRSYM    DATA     BIT       SWRST
      000000D0H.2 SFRSYM    DATA     BIT       OV
      000000CAH   SFRSYM    DATA     BYTE      CRCL
      000000C8H.7 SFRSYM    DATA     BIT       T2PS
      000000A0H.6 SFRSYM    DATA     BIT       WU
      000000F9H   SFRSYM    DATA     BYTE      FPCR
      00000080H   SFRSYM    DATA     BIT       P00
      000000BAH   SFRSYM    DATA     BYTE      S0RELH
      00000080H.1 SFRSYM    DATA     BIT       P01
      000000C0H.4 SFRSYM    DATA     BIT       USBF
      00000087H   SFRSYM    DATA     BYTE      PCON
      00000080H.3 SFRSYM    DATA     BIT       MCSN
      00000080H.2 SFRSYM    DATA     BIT       P02
      00000080H.3 SFRSYM    DATA     BIT       P03
      000000C0H.2 SFRSYM    DATA     BIT       SPIF
      000000F8H.2 SFRSYM    DATA     BIT       RDIS
      00000080H.4 SFRSYM    DATA     BIT       P04
      000000AAH   SFRSYM    DATA     BYTE      S0RELL
LX51 LINKER/LOCATER V4.66.41.0                                                        02/08/2016  23:35:20  PAGE 67


      00000080H.5 SFRSYM    DATA     BIT       P05
      00000089H   SFRSYM    DATA     BYTE      TMOD
      00000088H   SFRSYM    DATA     BYTE      TCON
      000000C2H   SFRSYM    DATA     WORD      CC1
      00000080H.3 SFRSYM    DATA     BIT       SCSN
      000000C4H   SFRSYM    DATA     WORD      CC2
      000000C6H   SFRSYM    DATA     WORD      CC3
      00000090H.2 SFRSYM    DATA     BIT       RFCKEN
      000000F8H   SFRSYM    DATA     BIT       WPEN
      000000F1H   SFRSYM    DATA     BYTE      AESKIN
      00000088H.1 SFRSYM    DATA     BIT       IE0
      000000F8H.4 SFRSYM    DATA     BIT       RDYN
      00000088H.3 SFRSYM    DATA     BIT       IE1
      000000A3H   SFRSYM    DATA     BYTE      CLKCTL
      000000F0H   SFRSYM    DATA     BYTE      B
      000000E9H   SFRSYM    DATA     BYTE      MD0
      000000EAH   SFRSYM    DATA     BYTE      MD1
      000000BDH   SFRSYM    DATA     BYTE      SSDATA
      000000EBH   SFRSYM    DATA     BYTE      MD2
      000000ECH   SFRSYM    DATA     BYTE      MD3
      000000EDH   SFRSYM    DATA     BYTE      MD4
      000000EEH   SFRSYM    DATA     BYTE      MD5
      000000E0H   SFRSYM    DATA     BYTE      ACC
      000000B5H   SFRSYM    DATA     BYTE      TICKDV
      000000A8H.4 SFRSYM    DATA     BIT       ES0
      000000A8H.1 SFRSYM    DATA     BIT       ET0
      000000A9H   SFRSYM    DATA     BYTE      IP0
      000000A8H.3 SFRSYM    DATA     BIT       ET1
      00000088H.5 SFRSYM    DATA     BIT       TF0
      000000B9H   SFRSYM    DATA     BYTE      IP1
      000000A8H.5 SFRSYM    DATA     BIT       ET2
      00000098H   SFRSYM    DATA     BIT       RI0
      00000088H.7 SFRSYM    DATA     BIT       TF1
      000000C0H   SFRSYM    DATA     BIT       RFSPIF
      000000C0H.6 SFRSYM    DATA     BIT       TF2
      000000A0H   SFRSYM    DATA     BYTE      USBCON
      0000008CH   SFRSYM    DATA     BYTE      TH0
      000000A8H   SFRSYM    DATA     BIT       EX0
      00000098H.1 SFRSYM    DATA     BIT       TI0
      00000088H   SFRSYM    DATA     BIT       IT0
      0000008DH   SFRSYM    DATA     BYTE      TH1
      000000A8H.2 SFRSYM    DATA     BIT       EX1
      00000088H.2 SFRSYM    DATA     BIT       IT1
      000000CDH   SFRSYM    DATA     BYTE      TH2
      000000BCH   SFRSYM    DATA     BYTE      SSCONF
      000000A0H   SFRSYM    DATA     BIT       IV0
      000000D0H   SFRSYM    DATA     BIT       P
      000000A0H.1 SFRSYM    DATA     BIT       IV1
      00000098H.7 SFRSYM    DATA     BIT       SM0
      0000008AH   SFRSYM    DATA     BYTE      TL0
      000000A0H.2 SFRSYM    DATA     BIT       IV2
      00000098H.6 SFRSYM    DATA     BIT       SM1
      0000008BH   SFRSYM    DATA     BYTE      TL1
      000000A0H.3 SFRSYM    DATA     BIT       IV3
      000000CCH   SFRSYM    DATA     BYTE      TL2
      000000A0H.4 SFRSYM    DATA     BIT       IV4
      000000A5H   SFRSYM    DATA     BYTE      WUCONF
      000000D0H.3 SFRSYM    DATA     BIT       RS0
      00000088H.4 SFRSYM    DATA     BIT       TR0
      000000D0H.4 SFRSYM    DATA     BIT       RS1
      00000088H.6 SFRSYM    DATA     BIT       TR1
      000000CAH   SFRSYM    DATA     WORD      CRC
      000000A6H   SFRSYM    DATA     BYTE      INTEXP
      000000FAH   SFRSYM    DATA     BYTE      FCR
      000000D9H   SFRSYM    DATA     BYTE      USBSLP
LX51 LINKER/LOCATER V4.66.41.0                                                        02/08/2016  23:35:20  PAGE 68


      00000083H   SFRSYM    DATA     BYTE      DPH
      000000C0H.1 SFRSYM    DATA     BIT       RFF
      000000C0H.3 SFRSYM    DATA     BIT       USBWUF
      00000094H   SFRSYM    DATA     BYTE      P0DIR
      00000082H   SFRSYM    DATA     BYTE      DPL
      00000099H   SFRSYM    DATA     BYTE      S0BUF
      00000095H   SFRSYM    DATA     BYTE      P0ALT
      000000B8H.7 SFRSYM    DATA     BIT       EXEN2
      000000BEH   SFRSYM    DATA     BYTE      SSSTAT
      000000A4H   SFRSYM    DATA     BYTE      PWRDWN
      00000098H   SFRSYM    DATA     BYTE      S0CON
      000000B1H   SFRSYM    DATA     BYTE      RSTRES
      000000C8H   SFRSYM    DATA     BYTE      T2CON
      00000092H   SFRSYM    DATA     BYTE      DPS
      000000B8H.4 SFRSYM    DATA     BIT       USB
      000000F8H.5 SFRSYM    DATA     BIT       WEN
      000000F8H   SFRSYM    DATA     BYTE      FSR
      000000B8H.2 SFRSYM    DATA     BIT       SPI
      000000F8H.1 SFRSYM    DATA     BIT       RDEND
      000000C9H   SFRSYM    DATA     BYTE      P0EXP
      0000008EH   SFRSYM    DATA     BYTE      CKCON
      000000E8H   SFRSYM    DATA     BYTE      AESCS
      000000F8H.3 SFRSYM    DATA     BIT       INFEN
      000000F8H.7 SFRSYM    DATA     BIT       MCDIS
      000000C0H.5 SFRSYM    DATA     BIT       WUF
      000000E5H   SFRSYM    DATA     BYTE      RFDAT
      000000EFH   SFRSYM    DATA     BYTE      ARCON
      000000D0H.5 SFRSYM    DATA     BIT       F0
      000000D0H.1 SFRSYM    DATA     BIT       F1
      000000F8H.6 SFRSYM    DATA     BIT       STP
      000000F2H   SFRSYM    DATA     BYTE      AESIV
      00000090H   SFRSYM    DATA     BYTE      RFCON
      000000D0H   SFRSYM    DATA     BYTE      PSW
      000000B2H   SFRSYM    DATA     BYTE      SMDAT
      000000ADH   SFRSYM    DATA     BYTE      REGXC
      00000098H.2 SFRSYM    DATA     BIT       RB80
      000000E6H   SFRSYM    DATA     BYTE      RFCTL
      000000D8H   SFRSYM    DATA     BYTE      WDCON
      000000C0H   SFRSYM    DATA     BYTE      IRCON
      00000090H.1 SFRSYM    DATA     BIT       RFCSN
      02008101H   SYMBOL    XDATA    ---       tmp_usb_buf
      02008109H   SYMBOL    XDATA    BYTE      tmp_usb_hid_protocol

      01000933H   BLOCK     CODE     ---       LVL=0
      01000933H   LINE      ---      ---       #26
      00000001H   SYMBOL    XSTK     ---       req
      00000004H   SYMBOL    XSTK     ---       data_ptr
      00000007H   SYMBOL    XSTK     ---       size
      0000000AH   SYMBOL    XSTK     ---       resp
      01000947H   BLOCK     CODE     NEAR LAB  LVL=1
      01000947H   LINE      ---      ---       #28
      0100094FH   LINE      ---      ---       #29
      01000961H   LINE      ---      ---       #31
      0100097CH   LINE      ---      ---       #32
      0100097CH   LINE      ---      ---       #33
      0100098DH   LINE      ---      ---       #34
      0100098DH   LINE      ---      ---       #35
      0100098DH   LINE      ---      ---       #36
      01000996H   LINE      ---      ---       #37
      010009D5H   LINE      ---      ---       #38
      01000A13H   LINE      ---      ---       #39
      01000A13H   LINE      ---      ---       #40
      01000A15H   LINE      ---      ---       #41
      01000A15H   LINE      ---      ---       #42
      01000A1EH   LINE      ---      ---       #43
LX51 LINKER/LOCATER V4.66.41.0                                                        02/08/2016  23:35:20  PAGE 69


      01000A5DH   LINE      ---      ---       #44
      01000A94H   LINE      ---      ---       #45
      01000A94H   LINE      ---      ---       #46
      01000A96H   LINE      ---      ---       #47
      01000A96H   LINE      ---      ---       #48
      01000A96H   LINE      ---      ---       #49
      01000A96H   LINE      ---      ---       #50
      01000A96H   LINE      ---      ---       #51
      01000AADH   LINE      ---      ---       #52
      01000AADH   LINE      ---      ---       #53
      01000AD0H   LINE      ---      ---       #54
      01000AD0H   LINE      ---      ---       #55
      01000AD0H   LINE      ---      ---       #56
      01000AD9H   LINE      ---      ---       #60
      01000AE2H   LINE      ---      ---       #61
      01000AFFH   LINE      ---      ---       #62
      01000B0FH   LINE      ---      ---       #63
      01000B0FH   LINE      ---      ---       #64
      01000B11H   LINE      ---      ---       #65
      01000B11H   LINE      ---      ---       #66
      01000B1AH   LINE      ---      ---       #67
      01000B29H   LINE      ---      ---       #68
      01000B2BH   LINE      ---      ---       #69
      01000B2BH   LINE      ---      ---       #70
      01000B34H   LINE      ---      ---       #72
      01000B44H   LINE      ---      ---       #73
      01000B46H   LINE      ---      ---       #74
      01000B46H   LINE      ---      ---       #75
      01000B4FH   LINE      ---      ---       #76
      01000B82H   LINE      ---      ---       #77
      01000B9FH   LINE      ---      ---       #78
      01000BB2H   LINE      ---      ---       #79
      01000BC2H   LINE      ---      ---       #80
      01000BC4H   LINE      ---      ---       #81
      01000BC4H   LINE      ---      ---       #82
      01000BCDH   LINE      ---      ---       #84
      01000BDFH   LINE      ---      ---       #85
      01000BDFH   LINE      ---      ---       #86
      01000BF7H   LINE      ---      ---       #87
      01000BF9H   LINE      ---      ---       #89
      01000BF9H   LINE      ---      ---       #90
      01000C16H   LINE      ---      ---       #91
      01000C16H   LINE      ---      ---       #93
      01000C26H   LINE      ---      ---       #97
      01000C28H   LINE      ---      ---       #98
      01000C28H   LINE      ---      ---       #99
      01000C28H   LINE      ---      ---       #100
      01000C41H   LINE      ---      ---       #101
      01000C41H   LINE      ---      ---       #102
      01000C4AH   LINE      ---      ---       #103
      01000C5DH   LINE      ---      ---       #104
      01000C5FH   LINE      ---      ---       #105
      01000C63H   LINE      ---      ---       #106
      01000C63H   LINE      ---      ---       #108
      01000C76H   LINE      ---      ---       #109
      01000C7FH   LINE      ---      ---       #110
      01000C7FH   LINE      ---      ---       #111
      01000C7FH   LINE      ---      ---       #112
      01000C7FH   LINE      ---      ---       #113
      01000C7FH   LINE      ---      ---       #114
      01000C7FH   LINE      ---      ---       #115
      01000C7FH   LINE      ---      ---       #116
      01000C7FH   LINE      ---      ---       #118
      01000C87H   LINE      ---      ---       #119
      00000000H   SYMBOL    XSTK     BYTE      retval
LX51 LINKER/LOCATER V4.66.41.0                                                        02/08/2016  23:35:20  PAGE 70


      ---         BLOCKEND  CODE     ---       LVL=1
      ---         BLOCKEND  CODE     ---       LVL=0

      ---         MODULE    ---      ---       HAL_NRF
      02008072H   PUBLIC    XDATA    BYTE      ?_hal_nrf_write_multibyte_reg?BYTE
      010024C9H   PUBLIC    CODE     ---       _hal_nrf_write_multibyte_reg
      010015C4H   PUBLIC    CODE     ---       _hal_nrf_write_reg
      0100160DH   PUBLIC    CODE     ---       _hal_nrf_read_reg
      01000FE2H   PUBLIC    CODE     ---       hal_nrf_flush_tx
      01000FCFH   PUBLIC    CODE     ---       hal_nrf_flush_rx
      0100249BH   PUBLIC    CODE     ---       _hal_nrf_enable_ack_payload
      0100246BH   PUBLIC    CODE     ---       _hal_nrf_enable_dynamic_payload
      010017EAH   PUBLIC    CODE     ---       _hal_nrf_setup_dynamic_payload
      010017C5H   PUBLIC    CODE     ---       hal_nrf_get_carrier_detect
      010017BCH   PUBLIC    CODE     ---       hal_nrf_get_transmit_attempts
      010017CEH   PUBLIC    CODE     ---       hal_nrf_tx_fifo_empty
      0100242FH   PUBLIC    CODE     ---       _hal_nrf_set_datarate
      01002411H   PUBLIC    CODE     ---       _hal_nrf_set_output_power
      0100156FH   PUBLIC    CODE     ---       _hal_nrf_set_rf_channel
      0100004EH   PUBLIC    CODE     ---       hal_nrf_get_address_width
      010023F4H   PUBLIC    CODE     ---       _hal_nrf_set_address_width
      010015A0H   PUBLIC    CODE     ---       _hal_nrf_set_auto_retr
      01000F72H   PUBLIC    CODE     ---       _hal_nrf_set_address
      01001625H   PUBLIC    CODE     ---       _hal_nrf_close_pipe
      01001679H   PUBLIC    CODE     ---       _hal_nrf_open_pipe
      010015E4H   PUBLIC    CODE     ---       hal_nrf_clear_irq_flags_get_status
      01000FEBH   PUBLIC    CODE     ---       hal_nrf_get_clear_irq_flags
      010023ACH   PUBLIC    CODE     ---       _hal_nrf_set_crc_mode
      01001422H   PUBLIC    CODE     ---       _hal_nrf_set_power_mode
      01001790H   PUBLIC    CODE     ---       _hal_nrf_set_operation_mode
      00000098H.3 SFRSYM    DATA     BIT       TB80
      000000C8H   SFRSYM    DATA     BIT       T2I0
      000000C3H   SFRSYM    DATA     BYTE      CCH1
      000000ABH   SFRSYM    DATA     BYTE      REGXH
      00000080H   SFRSYM    DATA     BYTE      P0
      000000C8H.1 SFRSYM    DATA     BIT       T2I1
      000000C5H   SFRSYM    DATA     BYTE      CCH2
      000000C7H   SFRSYM    DATA     BYTE      CCH3
      00000098H.5 SFRSYM    DATA     BIT       SM20
      000000D0H.6 SFRSYM    DATA     BIT       AC
      000000C2H   SFRSYM    DATA     BYTE      CCL1
      000000ACH   SFRSYM    DATA     BYTE      REGXL
      000000C4H   SFRSYM    DATA     BYTE      CCL2
      000000B3H   SFRSYM    DATA     BYTE      SMCTL
      000000D8H.7 SFRSYM    DATA     BIT       BD
      000000B8H   SFRSYM    DATA     BIT       RFSPI
      000000A8H.7 SFRSYM    DATA     BIT       EA
      000000CCH   SFRSYM    DATA     WORD      T2
      000000C6H   SFRSYM    DATA     BYTE      CCL3
      000000C8H.3 SFRSYM    DATA     BIT       T2R0
      000000C8H.4 SFRSYM    DATA     BIT       T2R1
      000000A8H   SFRSYM    DATA     BYTE      IEN0
      000000B8H   SFRSYM    DATA     BYTE      IEN1
      00000085H   SFRSYM    DATA     BYTE      DPH1
      0000009AH   SFRSYM    DATA     BYTE      IEN2
      00000084H   SFRSYM    DATA     BYTE      DPL1
      000000C8H.5 SFRSYM    DATA     BIT       I2FR
      000000C8H.6 SFRSYM    DATA     BIT       I3FR
      000000E8H   SFRSYM    DATA     BIT       GO
      000000C0H.7 SFRSYM    DATA     BIT       EXF2
      00000098H.4 SFRSYM    DATA     BIT       REN0
      000000F5H   SFRSYM    DATA     BYTE      AESIA1
      000000C8H.2 SFRSYM    DATA     BIT       T2CM
      000000F6H   SFRSYM    DATA     BYTE      AESIA2
      000000B8H.1 SFRSYM    DATA     BIT       RF
LX51 LINKER/LOCATER V4.66.41.0                                                        02/08/2016  23:35:20  PAGE 71


      000000B8H.3 SFRSYM    DATA     BIT       USBWU
      000000B8H.5 SFRSYM    DATA     BIT       WUIRQ
      000000C1H   SFRSYM    DATA     BYTE      CCEN
      000000D0H.7 SFRSYM    DATA     BIT       CY
      000000F3H   SFRSYM    DATA     BYTE      AESD
      000000E8H.1 SFRSYM    DATA     BIT       DECR
      00000090H   SFRSYM    DATA     BIT       RFCE
      000000CBH   SFRSYM    DATA     BYTE      CRCH
      00000081H   SFRSYM    DATA     BYTE      SP
      000000A0H.5 SFRSYM    DATA     BIT       SUSPEND
      000000A0H.7 SFRSYM    DATA     BIT       SWRST
      000000D0H.2 SFRSYM    DATA     BIT       OV
      000000CAH   SFRSYM    DATA     BYTE      CRCL
      000000C8H.7 SFRSYM    DATA     BIT       T2PS
      000000A0H.6 SFRSYM    DATA     BIT       WU
      000000F9H   SFRSYM    DATA     BYTE      FPCR
      00000080H   SFRSYM    DATA     BIT       P00
      000000BAH   SFRSYM    DATA     BYTE      S0RELH
      00000080H.1 SFRSYM    DATA     BIT       P01
      000000C0H.4 SFRSYM    DATA     BIT       USBF
      00000087H   SFRSYM    DATA     BYTE      PCON
      00000080H.3 SFRSYM    DATA     BIT       MCSN
      00000080H.2 SFRSYM    DATA     BIT       P02
      00000080H.3 SFRSYM    DATA     BIT       P03
      000000C0H.2 SFRSYM    DATA     BIT       SPIF
      000000F8H.2 SFRSYM    DATA     BIT       RDIS
      00000080H.4 SFRSYM    DATA     BIT       P04
      000000AAH   SFRSYM    DATA     BYTE      S0RELL
      00000080H.5 SFRSYM    DATA     BIT       P05
      00000089H   SFRSYM    DATA     BYTE      TMOD
      00000088H   SFRSYM    DATA     BYTE      TCON
      000000C2H   SFRSYM    DATA     WORD      CC1
      00000080H.3 SFRSYM    DATA     BIT       SCSN
      000000C4H   SFRSYM    DATA     WORD      CC2
      000000C6H   SFRSYM    DATA     WORD      CC3
      00000090H.2 SFRSYM    DATA     BIT       RFCKEN
      000000F8H   SFRSYM    DATA     BIT       WPEN
      000000F1H   SFRSYM    DATA     BYTE      AESKIN
      00000088H.1 SFRSYM    DATA     BIT       IE0
      000000F8H.4 SFRSYM    DATA     BIT       RDYN
      00000088H.3 SFRSYM    DATA     BIT       IE1
      000000A3H   SFRSYM    DATA     BYTE      CLKCTL
      000000F0H   SFRSYM    DATA     BYTE      B
      000000E9H   SFRSYM    DATA     BYTE      MD0
      000000EAH   SFRSYM    DATA     BYTE      MD1
      000000BDH   SFRSYM    DATA     BYTE      SSDATA
      000000EBH   SFRSYM    DATA     BYTE      MD2
      000000ECH   SFRSYM    DATA     BYTE      MD3
      000000EDH   SFRSYM    DATA     BYTE      MD4
      000000EEH   SFRSYM    DATA     BYTE      MD5
      000000E0H   SFRSYM    DATA     BYTE      ACC
      000000B5H   SFRSYM    DATA     BYTE      TICKDV
      000000A8H.4 SFRSYM    DATA     BIT       ES0
      000000A8H.1 SFRSYM    DATA     BIT       ET0
      000000A9H   SFRSYM    DATA     BYTE      IP0
      000000A8H.3 SFRSYM    DATA     BIT       ET1
      00000088H.5 SFRSYM    DATA     BIT       TF0
      000000B9H   SFRSYM    DATA     BYTE      IP1
      000000A8H.5 SFRSYM    DATA     BIT       ET2
      00000098H   SFRSYM    DATA     BIT       RI0
      00000088H.7 SFRSYM    DATA     BIT       TF1
      000000C0H   SFRSYM    DATA     BIT       RFSPIF
      000000C0H.6 SFRSYM    DATA     BIT       TF2
      000000A0H   SFRSYM    DATA     BYTE      USBCON
      0000008CH   SFRSYM    DATA     BYTE      TH0
LX51 LINKER/LOCATER V4.66.41.0                                                        02/08/2016  23:35:20  PAGE 72


      000000A8H   SFRSYM    DATA     BIT       EX0
      00000098H.1 SFRSYM    DATA     BIT       TI0
      00000088H   SFRSYM    DATA     BIT       IT0
      0000008DH   SFRSYM    DATA     BYTE      TH1
      000000A8H.2 SFRSYM    DATA     BIT       EX1
      00000088H.2 SFRSYM    DATA     BIT       IT1
      000000CDH   SFRSYM    DATA     BYTE      TH2
      000000BCH   SFRSYM    DATA     BYTE      SSCONF
      000000A0H   SFRSYM    DATA     BIT       IV0
      000000D0H   SFRSYM    DATA     BIT       P
      000000A0H.1 SFRSYM    DATA     BIT       IV1
      00000098H.7 SFRSYM    DATA     BIT       SM0
      0000008AH   SFRSYM    DATA     BYTE      TL0
      000000A0H.2 SFRSYM    DATA     BIT       IV2
      00000098H.6 SFRSYM    DATA     BIT       SM1
      0000008BH   SFRSYM    DATA     BYTE      TL1
      000000A0H.3 SFRSYM    DATA     BIT       IV3
      000000CCH   SFRSYM    DATA     BYTE      TL2
      000000A0H.4 SFRSYM    DATA     BIT       IV4
      000000A5H   SFRSYM    DATA     BYTE      WUCONF
      000000D0H.3 SFRSYM    DATA     BIT       RS0
      00000088H.4 SFRSYM    DATA     BIT       TR0
      000000D0H.4 SFRSYM    DATA     BIT       RS1
      00000088H.6 SFRSYM    DATA     BIT       TR1
      000000CAH   SFRSYM    DATA     WORD      CRC
      000000A6H   SFRSYM    DATA     BYTE      INTEXP
      000000FAH   SFRSYM    DATA     BYTE      FCR
      000000D9H   SFRSYM    DATA     BYTE      USBSLP
      00000083H   SFRSYM    DATA     BYTE      DPH
      000000C0H.1 SFRSYM    DATA     BIT       RFF
      000000C0H.3 SFRSYM    DATA     BIT       USBWUF
      00000094H   SFRSYM    DATA     BYTE      P0DIR
      00000082H   SFRSYM    DATA     BYTE      DPL
      00000099H   SFRSYM    DATA     BYTE      S0BUF
      00000095H   SFRSYM    DATA     BYTE      P0ALT
      000000B8H.7 SFRSYM    DATA     BIT       EXEN2
      000000BEH   SFRSYM    DATA     BYTE      SSSTAT
      000000A4H   SFRSYM    DATA     BYTE      PWRDWN
      00000098H   SFRSYM    DATA     BYTE      S0CON
      000000B1H   SFRSYM    DATA     BYTE      RSTRES
      000000C8H   SFRSYM    DATA     BYTE      T2CON
      00000092H   SFRSYM    DATA     BYTE      DPS
      000000B8H.4 SFRSYM    DATA     BIT       USB
      000000F8H.5 SFRSYM    DATA     BIT       WEN
      000000F8H   SFRSYM    DATA     BYTE      FSR
      000000B8H.2 SFRSYM    DATA     BIT       SPI
      000000F8H.1 SFRSYM    DATA     BIT       RDEND
      000000C9H   SFRSYM    DATA     BYTE      P0EXP
      0000008EH   SFRSYM    DATA     BYTE      CKCON
      000000E8H   SFRSYM    DATA     BYTE      AESCS
      000000F8H.3 SFRSYM    DATA     BIT       INFEN
      000000F8H.7 SFRSYM    DATA     BIT       MCDIS
      000000C0H.5 SFRSYM    DATA     BIT       WUF
      000000E5H   SFRSYM    DATA     BYTE      RFDAT
      000000EFH   SFRSYM    DATA     BYTE      ARCON
      000000D0H.5 SFRSYM    DATA     BIT       F0
      000000D0H.1 SFRSYM    DATA     BIT       F1
      000000F8H.6 SFRSYM    DATA     BIT       STP
      000000F2H   SFRSYM    DATA     BYTE      AESIV
      00000090H   SFRSYM    DATA     BYTE      RFCON
      000000D0H   SFRSYM    DATA     BYTE      PSW
      000000B2H   SFRSYM    DATA     BYTE      SMDAT
      000000ADH   SFRSYM    DATA     BYTE      REGXC
      00000098H.2 SFRSYM    DATA     BIT       RB80
      000000E6H   SFRSYM    DATA     BYTE      RFCTL
LX51 LINKER/LOCATER V4.66.41.0                                                        02/08/2016  23:35:20  PAGE 73


      000000D8H   SFRSYM    DATA     BYTE      WDCON
      000000C0H   SFRSYM    DATA     BYTE      IRCON
      00000090H.1 SFRSYM    DATA     BIT       RFCSN

      01001790H   BLOCK     CODE     ---       LVL=0
      01001790H   LINE      ---      ---       #189
      01001795H   LINE      ---      ---       #190
      0200806AH   SYMBOL    XDATA    BYTE      op_mode
      01001795H   BLOCK     CODE     NEAR LAB  LVL=1
      01001795H   LINE      ---      ---       #192
      0100179EH   LINE      ---      ---       #194
      010017A5H   LINE      ---      ---       #195
      010017A5H   LINE      ---      ---       #196
      010017AAH   LINE      ---      ---       #197
      010017ACH   LINE      ---      ---       #199
      010017ACH   LINE      ---      ---       #200
      010017B3H   LINE      ---      ---       #201
      010017B3H   LINE      ---      ---       #203
      0200806BH   SYMBOL    XDATA    ---       config
      ---         BLOCKEND  CODE     ---       LVL=1
      ---         BLOCKEND  CODE     ---       LVL=0

      01001422H   BLOCK     CODE     ---       LVL=0
      01001422H   LINE      ---      ---       #206
      01001427H   LINE      ---      ---       #207
      02008088H   SYMBOL    XDATA    BYTE      pwr_mode
      01001427H   BLOCK     CODE     NEAR LAB  LVL=1
      01001427H   LINE      ---      ---       #209
      01001430H   LINE      ---      ---       #211
      01001437H   LINE      ---      ---       #212
      01001437H   LINE      ---      ---       #213
      0100143CH   LINE      ---      ---       #214
      0100143EH   LINE      ---      ---       #216
      0100143EH   LINE      ---      ---       #217
      01001445H   LINE      ---      ---       #218
      01001445H   LINE      ---      ---       #220
      02008089H   SYMBOL    XDATA    ---       config
      ---         BLOCKEND  CODE     ---       LVL=1
      ---         BLOCKEND  CODE     ---       LVL=0

      010023ACH   BLOCK     CODE     ---       LVL=0
      010023ACH   LINE      ---      ---       #223
      010023B1H   LINE      ---      ---       #224
      0200806EH   SYMBOL    XDATA    BYTE      crc_mode
      010023B1H   BLOCK     CODE     NEAR LAB  LVL=1
      010023B1H   LINE      ---      ---       #226
      010023BBH   LINE      ---      ---       #228
      010023C9H   LINE      ---      ---       #229
      010023C9H   LINE      ---      ---       #230
      010023C9H   LINE      ---      ---       #231
      010023D0H   LINE      ---      ---       #232
      010023D2H   LINE      ---      ---       #233
      010023D2H   LINE      ---      ---       #234
      010023D9H   LINE      ---      ---       #235
      010023DDH   LINE      ---      ---       #236
      010023DFH   LINE      ---      ---       #237
      010023DFH   LINE      ---      ---       #238
      010023E6H   LINE      ---      ---       #239
      010023EAH   LINE      ---      ---       #240
      010023EAH   LINE      ---      ---       #241
      010023EAH   LINE      ---      ---       #242
      010023EAH   LINE      ---      ---       #243
      010023EAH   LINE      ---      ---       #245
      0200806FH   SYMBOL    XDATA    ---       config
      ---         BLOCKEND  CODE     ---       LVL=1
LX51 LINKER/LOCATER V4.66.41.0                                                        02/08/2016  23:35:20  PAGE 74


      ---         BLOCKEND  CODE     ---       LVL=0

      01000FEBH   BLOCK     CODE     ---       LVL=0
      01000FEBH   LINE      ---      ---       #269
      01000FEBH   LINE      ---      ---       #270
      01000FEBH   BLOCK     CODE     NEAR LAB  LVL=1
      01000FEBH   LINE      ---      ---       #273
      01000FF2H   LINE      ---      ---       #275
      01000FF6H   LINE      ---      ---       #276
      00000007H   SYMBOL    DATA     BYTE      retval
      ---         BLOCKEND  CODE     ---       LVL=1
      ---         BLOCKEND  CODE     ---       LVL=0

      010015E4H   BLOCK     CODE     ---       LVL=0
      010015E4H   LINE      ---      ---       #278
      010015E4H   LINE      ---      ---       #279
      010015E4H   BLOCK     CODE     NEAR LAB  LVL=1
      010015E4H   LINE      ---      ---       #283
      010015F1H   LINE      ---      ---       #284
      01001605H   LINE      ---      ---       #286
      01001605H   LINE      ---      ---       #287
      02008082H   SYMBOL    XDATA    BYTE      retval
      ---         BLOCKEND  CODE     ---       LVL=1
      ---         BLOCKEND  CODE     ---       LVL=0
      00000007H   SYMBOL    DATA     BYTE      int_source

      01001679H   BLOCK     CODE     ---       LVL=0
      01001679H   LINE      ---      ---       #300
      01001681H   LINE      ---      ---       #301
      0200806AH   SYMBOL    XDATA    BYTE      pipe_num
      0200806BH   SYMBOL    XDATA    BYTE      auto_ack
      01001681H   BLOCK     CODE     NEAR LAB  LVL=1
      01001681H   LINE      ---      ---       #304
      0100168AH   LINE      ---      ---       #305
      01001693H   LINE      ---      ---       #307
      010016A2H   LINE      ---      ---       #308
      010016A2H   LINE      ---      ---       #309
      010016A2H   LINE      ---      ---       #310
      010016A2H   LINE      ---      ---       #311
      010016A2H   LINE      ---      ---       #312
      010016A2H   LINE      ---      ---       #313
      010016A2H   LINE      ---      ---       #314
      010016A2H   LINE      ---      ---       #315
      010016B4H   LINE      ---      ---       #317
      010016BAH   LINE      ---      ---       #318
      010016BAH   LINE      ---      ---       #319
      010016C0H   LINE      ---      ---       #320
      010016C2H   LINE      ---      ---       #322
      010016C2H   LINE      ---      ---       #323
      010016DAH   LINE      ---      ---       #324
      010016DAH   LINE      ---      ---       #325
      010016DCH   LINE      ---      ---       #327
      010016DCH   LINE      ---      ---       #328
      010016E2H   LINE      ---      ---       #330
      010016E8H   LINE      ---      ---       #331
      010016E8H   LINE      ---      ---       #332
      010016EEH   LINE      ---      ---       #333
      010016F0H   LINE      ---      ---       #335
      010016F0H   LINE      ---      ---       #336
      010016F5H   LINE      ---      ---       #337
      010016F5H   LINE      ---      ---       #338
      010016F5H   LINE      ---      ---       #340
      010016F5H   LINE      ---      ---       #341
      010016F5H   LINE      ---      ---       #342
      010016F5H   LINE      ---      ---       #343
LX51 LINKER/LOCATER V4.66.41.0                                                        02/08/2016  23:35:20  PAGE 75


      010016F5H   LINE      ---      ---       #345
      010016FAH   LINE      ---      ---       #346
      0200806CH   SYMBOL    XDATA    ---       en_rxaddr
      0200806DH   SYMBOL    XDATA    ---       en_aa
      ---         BLOCKEND  CODE     ---       LVL=1
      ---         BLOCKEND  CODE     ---       LVL=0

      01001625H   BLOCK     CODE     ---       LVL=0
      01001625H   LINE      ---      ---       #349
      0100162AH   LINE      ---      ---       #350
      0200806AH   SYMBOL    XDATA    BYTE      pipe_num
      0100162AH   BLOCK     CODE     NEAR LAB  LVL=1
      0100162AH   LINE      ---      ---       #353
      01001633H   LINE      ---      ---       #354
      0100163CH   LINE      ---      ---       #356
      0100164BH   LINE      ---      ---       #357
      0100164BH   LINE      ---      ---       #358
      0100164BH   LINE      ---      ---       #359
      0100164BH   LINE      ---      ---       #360
      0100164BH   LINE      ---      ---       #361
      0100164BH   LINE      ---      ---       #362
      0100164BH   LINE      ---      ---       #363
      0100164BH   LINE      ---      ---       #364
      0100165EH   LINE      ---      ---       #365
      01001662H   LINE      ---      ---       #366
      01001664H   LINE      ---      ---       #368
      01001664H   LINE      ---      ---       #369
      01001669H   LINE      ---      ---       #370
      0100166BH   LINE      ---      ---       #371
      0100166BH   LINE      ---      ---       #373
      0100166BH   LINE      ---      ---       #374
      0100166BH   LINE      ---      ---       #375
      0100166BH   LINE      ---      ---       #376
      0100166BH   LINE      ---      ---       #378
      01001670H   LINE      ---      ---       #379
      0200806BH   SYMBOL    XDATA    ---       en_rxaddr
      0200806CH   SYMBOL    XDATA    ---       en_aa
      ---         BLOCKEND  CODE     ---       LVL=1
      ---         BLOCKEND  CODE     ---       LVL=0

      01000F6AH   BLOCK     CODE     ---       LVL=0
      01000F72H   LINE      ---      ---       #382
      01000F82H   LINE      ---      ---       #383
      01000F82H   LINE      ---      ---       #384
      01000F8FH   LINE      ---      ---       #385
      01000F8FH   LINE      ---      ---       #386
      01000F8FH   LINE      ---      ---       #387
      01000F8FH   LINE      ---      ---       #388
      01000F8FH   LINE      ---      ---       #389
      01000FAAH   LINE      ---      ---       #390
      01000FAAH   LINE      ---      ---       #391
      01000FAAH   LINE      ---      ---       #392
      01000FAAH   LINE      ---      ---       #393
      01000FAAH   LINE      ---      ---       #394
      01000FAAH   LINE      ---      ---       #395
      01000FC1H   LINE      ---      ---       #396
      01000FC1H   LINE      ---      ---       #398
      01000FC1H   LINE      ---      ---       #399
      01000FC1H   LINE      ---      ---       #400
      01000FC1H   LINE      ---      ---       #401
      01000FC1H   LINE      ---      ---       #402
      0200806EH   SYMBOL    XDATA    BYTE      address
      0200806FH   SYMBOL    XDATA    ---       addr
      ---         BLOCKEND  ---      ---       LVL=0

LX51 LINKER/LOCATER V4.66.41.0                                                        02/08/2016  23:35:20  PAGE 76


      010015A0H   BLOCK     CODE     ---       LVL=0
      010015A0H   LINE      ---      ---       #418
      010015A2H   LINE      ---      ---       #419
      00000003H   SYMBOL    DATA     BYTE      retr
      00000004H   SYMBOL    DATA     WORD      delay
      010015A2H   BLOCK     CODE     NEAR LAB  LVL=1
      010015A2H   LINE      ---      ---       #421
      010015B1H   LINE      ---      ---       #422
      010015BAH   LINE      ---      ---       #424
      02008084H   SYMBOL    XDATA    ---       setup_retr
      ---         BLOCKEND  CODE     ---       LVL=1
      ---         BLOCKEND  CODE     ---       LVL=0

      010023F4H   BLOCK     CODE     ---       LVL=0
      010023F4H   LINE      ---      ---       #427
      010023F4H   LINE      ---      ---       #428
      00000007H   SYMBOL    DATA     BYTE      address_width
      010023F4H   BLOCK     CODE     NEAR LAB  LVL=1
      010023F4H   LINE      ---      ---       #430
      010023F9H   LINE      ---      ---       #431
      01002404H   LINE      ---      ---       #433
      0200806EH   SYMBOL    XDATA    ---       setup_aw
      ---         BLOCKEND  CODE     ---       LVL=1
      ---         BLOCKEND  CODE     ---       LVL=0

      0100004EH   BLOCK     CODE     ---       LVL=0
      0100004EH   LINE      ---      ---       #436
      0100004EH   LINE      ---      ---       #437
      0100004EH   LINE      ---      ---       #438
      01000057H   LINE      ---      ---       #439
      ---         BLOCKEND  ---      ---       LVL=0
      00000007H   SYMBOL    DATA     BYTE      pipe_num
      00000005H   SYMBOL    DATA     BYTE      pload_width
      00000007H   SYMBOL    DATA     BYTE      pipe_num

      0100156FH   BLOCK     CODE     ---       LVL=0
      0100156FH   LINE      ---      ---       #532
      0100156FH   LINE      ---      ---       #533
      00000007H   SYMBOL    DATA     BYTE      channel
      0100156FH   BLOCK     CODE     NEAR LAB  LVL=1
      0100156FH   LINE      ---      ---       #535
      01001574H   LINE      ---      ---       #536
      0100157DH   LINE      ---      ---       #537
      02008088H   SYMBOL    XDATA    ---       rf_ch
      ---         BLOCKEND  CODE     ---       LVL=1
      ---         BLOCKEND  CODE     ---       LVL=0

      0100240BH   BLOCK     CODE     ---       LVL=0
      01002411H   LINE      ---      ---       #540
      0200806EH   SYMBOL    XDATA    BYTE      power
      01002411H   BLOCK     CODE     NEAR LAB  LVL=1
      01002419H   LINE      ---      ---       #545
      01002428H   LINE      ---      ---       #547
      0200806FH   SYMBOL    XDATA    ---       rf_setup
      ---         BLOCKEND  CODE     ---       LVL=1
      ---         BLOCKEND  CODE     ---       LVL=0

      0100242FH   BLOCK     CODE     ---       LVL=0
      0100242FH   LINE      ---      ---       #550
      0200806EH   SYMBOL    XDATA    BYTE      datarate
      0100242FH   BLOCK     CODE     NEAR LAB  LVL=1
      01002437H   LINE      ---      ---       #555
      01002441H   LINE      ---      ---       #556
      01002441H   LINE      ---      ---       #557
      01002441H   LINE      ---      ---       #558
LX51 LINKER/LOCATER V4.66.41.0                                                        02/08/2016  23:35:20  PAGE 77


      01002447H   LINE      ---      ---       #559
      01002447H   LINE      ---      ---       #560
      01002449H   LINE      ---      ---       #561
      01002449H   LINE      ---      ---       #562
      01002450H   LINE      ---      ---       #563
      01002454H   LINE      ---      ---       #564
      01002456H   LINE      ---      ---       #565
      01002456H   LINE      ---      ---       #566
      01002456H   LINE      ---      ---       #567
      0100245DH   LINE      ---      ---       #568
      01002461H   LINE      ---      ---       #569
      01002461H   LINE      ---      ---       #570
      01002461H   LINE      ---      ---       #572
      0200806FH   SYMBOL    XDATA    ---       rf_setup
      ---         BLOCKEND  CODE     ---       LVL=1
      ---         BLOCKEND  CODE     ---       LVL=0

      010017CEH   BLOCK     CODE     ---       LVL=0
      010017CEH   LINE      ---      ---       #585
      010017CEH   LINE      ---      ---       #586
      010017CEH   LINE      ---      ---       #587
      010017D7H   LINE      ---      ---       #588
      ---         BLOCKEND  ---      ---       LVL=0

      010017BCH   BLOCK     CODE     ---       LVL=0
      010017BCH   LINE      ---      ---       #610
      010017BCH   LINE      ---      ---       #611
      010017BCH   LINE      ---      ---       #612
      010017C4H   LINE      ---      ---       #613
      ---         BLOCKEND  ---      ---       LVL=0

      010017C5H   BLOCK     CODE     ---       LVL=0
      010017C5H   LINE      ---      ---       #615
      010017C5H   LINE      ---      ---       #616
      010017C5H   LINE      ---      ---       #617
      010017CDH   LINE      ---      ---       #618
      ---         BLOCKEND  ---      ---       LVL=0

      010017EAH   BLOCK     CODE     ---       LVL=0
      010017EAH   LINE      ---      ---       #623
      010017EAH   LINE      ---      ---       #624
      00000007H   SYMBOL    DATA     BYTE      setup
      010017EAH   BLOCK     CODE     NEAR LAB  LVL=1
      010017EAH   LINE      ---      ---       #626
      010017F1H   LINE      ---      ---       #628
      0200806EH   SYMBOL    XDATA    ---       dynpd
      ---         BLOCKEND  CODE     ---       LVL=1
      ---         BLOCKEND  CODE     ---       LVL=0

      0100246BH   BLOCK     CODE     ---       LVL=0
      0100246BH   LINE      ---      ---       #631
      01002470H   LINE      ---      ---       #632
      0200806EH   SYMBOL    XDATA    BYTE      enable
      01002470H   BLOCK     CODE     NEAR LAB  LVL=1
      01002470H   LINE      ---      ---       #634
      0100247AH   LINE      ---      ---       #635
      01002494H   LINE      ---      ---       #637
      0200806FH   SYMBOL    XDATA    ---       feature
      ---         BLOCKEND  CODE     ---       LVL=1
      ---         BLOCKEND  CODE     ---       LVL=0

      0100249BH   BLOCK     CODE     ---       LVL=0
      0100249BH   LINE      ---      ---       #640
      010024A0H   LINE      ---      ---       #641
      0200806EH   SYMBOL    XDATA    BYTE      enable
LX51 LINKER/LOCATER V4.66.41.0                                                        02/08/2016  23:35:20  PAGE 78


      010024A0H   BLOCK     CODE     NEAR LAB  LVL=1
      010024A0H   LINE      ---      ---       #643
      010024AAH   LINE      ---      ---       #644
      010024C2H   LINE      ---      ---       #646
      0200806FH   SYMBOL    XDATA    ---       feature
      ---         BLOCKEND  CODE     ---       LVL=1
      ---         BLOCKEND  CODE     ---       LVL=0
      00000001H   SYMBOL    DATA     ---       tx_pload
      00000005H   SYMBOL    DATA     BYTE      length
      00000001H   SYMBOL    DATA     ---       tx_pload
      00000005H   SYMBOL    DATA     BYTE      length
      00000007H   SYMBOL    DATA     BYTE      pipe
      00000001H   SYMBOL    DATA     ---       tx_pload
      00000001H   SYMBOL    DATA     ---       rx_pload

      01000FCFH   BLOCK     CODE     ---       LVL=0
      01000FCFH   LINE      ---      ---       #700
      01000FCFH   LINE      ---      ---       #701
      01000FCFH   LINE      ---      ---       #702
      01000FD1H   LINE      ---      ---       #703
      01000FD5H   LINE      ---      ---       #704
      01000FD7H   LINE      ---      ---       #705
      ---         BLOCKEND  ---      ---       LVL=0

      01000FE2H   BLOCK     CODE     ---       LVL=0
      01000FE2H   LINE      ---      ---       #707
      01000FE2H   LINE      ---      ---       #708
      01000FE2H   LINE      ---      ---       #709
      01000FE4H   LINE      ---      ---       #710
      01000FE8H   LINE      ---      ---       #711
      01000FEAH   LINE      ---      ---       #712
      ---         BLOCKEND  ---      ---       LVL=0
      00000007H   SYMBOL    DATA     BYTE      retval

      01001606H   BLOCK     CODE     ---       LVL=0
      0100160DH   LINE      ---      ---       #743
      0100160DH   LINE      ---      ---       #744
      00000007H   SYMBOL    DATA     BYTE      reg
      0100160DH   BLOCK     CODE     NEAR LAB  LVL=1
      0100160DH   LINE      ---      ---       #747
      0100160FH   LINE      ---      ---       #749
      01001613H   LINE      ---      ---       #750
      01001616H   LINE      ---      ---       #751
      01001618H   LINE      ---      ---       #753
      0100161DH   LINE      ---      ---       #754
      01001620H   LINE      ---      ---       #755
      01001622H   LINE      ---      ---       #757
      01001624H   LINE      ---      ---       #759
      01001624H   LINE      ---      ---       #760
      00000007H   SYMBOL    DATA     BYTE      temp
      ---         BLOCKEND  CODE     ---       LVL=1
      ---         BLOCKEND  CODE     ---       LVL=0

      010015C0H   BLOCK     CODE     ---       LVL=0
      010015C4H   LINE      ---      ---       #762
      010015C4H   LINE      ---      ---       #763
      00000007H   SYMBOL    DATA     BYTE      reg
      00000005H   SYMBOL    DATA     BYTE      value
      010015C4H   BLOCK     CODE     NEAR LAB  LVL=1
      010015C4H   LINE      ---      ---       #770
      010015C6H   LINE      ---      ---       #772
      010015CDH   LINE      ---      ---       #773
      010015D0H   LINE      ---      ---       #774
      010015D2H   LINE      ---      ---       #776
      010015D8H   LINE      ---      ---       #777
LX51 LINKER/LOCATER V4.66.41.0                                                        02/08/2016  23:35:20  PAGE 79


      010015DBH   LINE      ---      ---       #778
      010015E1H   LINE      ---      ---       #780
      010015E3H   LINE      ---      ---       #782
      010015E3H   LINE      ---      ---       #783
      00000007H   SYMBOL    DATA     BYTE      retval
      0200808AH   SYMBOL    XDATA    BYTE      dummy
      ---         BLOCKEND  CODE     ---       LVL=1
      ---         BLOCKEND  CODE     ---       LVL=0

      010024C9H   BLOCK     CODE     ---       LVL=0
      010024C9H   LINE      ---      ---       #878
      010024D4H   LINE      ---      ---       #882
      00000007H   SYMBOL    DATA     BYTE      reg
      02008073H   SYMBOL    XDATA    ---       pbuf
      02008076H   SYMBOL    XDATA    BYTE      length
      010024D4H   BLOCK     CODE     NEAR LAB  LVL=1
      010024D4H   LINE      ---      ---       #887
      010024D9H   LINE      ---      ---       #889
      010024DBH   LINE      ---      ---       #890
      010024DFH   LINE      ---      ---       #892
      010024E2H   LINE      ---      ---       #893
      00000005H   SYMBOL    DATA     BYTE      memtype
      00000006H   SYMBOL    DATA     BYTE      next
      02008077H   SYMBOL    XDATA    BYTE      dummy
      010024E2H   BLOCK     CODE     NEAR LAB  LVL=2
      010024E2H   LINE      ---      ---       #894
      010024E9H   LINE      ---      ---       #895
      01002508H   LINE      ---      ---       #896
      02008078H   SYMBOL    XDATA    ---       buf
      02008078H   SYMBOL    XDATA    ---       buf
      02008078H   SYMBOL    XDATA    ---       buf
      02008078H   SYMBOL    XDATA    ---       buf
      0100250AH   LINE      ---      ---       #897
      0100250FH   LINE      ---      ---       #898
      0100250FH   LINE      CODE     ---       #898
      0100250FH   BLOCK     CODE     NEAR LAB  LVL=2
      0100250FH   LINE      ---      ---       #899
      0100251FH   LINE      ---      ---       #900
      0100254FH   LINE      ---      ---       #901
      02008078H   SYMBOL    XDATA    ---       buf
      02008078H   SYMBOL    XDATA    ---       buf
      02008078H   SYMBOL    XDATA    ---       buf
      01002551H   LINE      ---      ---       #902
      01002556H   LINE      ---      ---       #903
      01002556H   LINE      CODE     ---       #903
      01002556H   BLOCK     CODE     NEAR LAB  LVL=2
      01002556H   LINE      ---      ---       #904
      01002560H   LINE      ---      ---       #905
      0100257FH   LINE      ---      ---       #906
      02008078H   SYMBOL    XDATA    ---       buf
      02008078H   SYMBOL    XDATA    ---       buf
      01002581H   LINE      ---      ---       #908
      01002581H   LINE      CODE     ---       #908
      01002581H   BLOCK     CODE     NEAR LAB  LVL=2
      01002581H   LINE      ---      ---       #909
      01002596H   LINE      ---      ---       #910
      010025C4H   LINE      ---      ---       #911
      02008078H   SYMBOL    XDATA    ---       buf
      010025C4H   LINE      ---      ---       #913
      010025C7H   LINE      ---      ---       #914
      010025CDH   LINE      ---      ---       #915
      010025CFH   LINE      ---      ---       #916
      010025CFH   LINE      CODE     ---       #916
      ---         BLOCKEND  CODE     ---       LVL=1
      ---         BLOCKEND  CODE     ---       LVL=0
LX51 LINKER/LOCATER V4.66.41.0                                                        02/08/2016  23:35:20  PAGE 80



      ---         MODULE    ---      ---       LIB_CRYPT
      020080F1H   SYMBOL    XDATA    ---       aes_counter
      00000001H   SYMBOL    DATA     ---       key
      00000007H   SYMBOL    DATA     BYTE      i
      00000007H   SYMBOL    DATA     BYTE      i

      ---         MODULE    ---      ---       LIB_CRYPT_LU1
      00000098H.3 SFRSYM    DATA     BIT       TB80
      000000C8H   SFRSYM    DATA     BIT       T2I0
      000000C3H   SFRSYM    DATA     BYTE      CCH1
      000000ABH   SFRSYM    DATA     BYTE      REGXH
      00000080H   SFRSYM    DATA     BYTE      P0
      000000C8H.1 SFRSYM    DATA     BIT       T2I1
      000000C5H   SFRSYM    DATA     BYTE      CCH2
      000000C7H   SFRSYM    DATA     BYTE      CCH3
      00000098H.5 SFRSYM    DATA     BIT       SM20
      000000D0H.6 SFRSYM    DATA     BIT       AC
      000000C2H   SFRSYM    DATA     BYTE      CCL1
      000000ACH   SFRSYM    DATA     BYTE      REGXL
      000000C4H   SFRSYM    DATA     BYTE      CCL2
      000000B3H   SFRSYM    DATA     BYTE      SMCTL
      000000D8H.7 SFRSYM    DATA     BIT       BD
      000000B8H   SFRSYM    DATA     BIT       RFSPI
      000000A8H.7 SFRSYM    DATA     BIT       EA
      000000CCH   SFRSYM    DATA     WORD      T2
      000000C6H   SFRSYM    DATA     BYTE      CCL3
      000000C8H.3 SFRSYM    DATA     BIT       T2R0
      000000C8H.4 SFRSYM    DATA     BIT       T2R1
      000000A8H   SFRSYM    DATA     BYTE      IEN0
      000000B8H   SFRSYM    DATA     BYTE      IEN1
      00000085H   SFRSYM    DATA     BYTE      DPH1
      0000009AH   SFRSYM    DATA     BYTE      IEN2
      00000084H   SFRSYM    DATA     BYTE      DPL1
      000000C8H.5 SFRSYM    DATA     BIT       I2FR
      000000C8H.6 SFRSYM    DATA     BIT       I3FR
      000000E8H   SFRSYM    DATA     BIT       GO
      000000C0H.7 SFRSYM    DATA     BIT       EXF2
      00000098H.4 SFRSYM    DATA     BIT       REN0
      000000F5H   SFRSYM    DATA     BYTE      AESIA1
      000000C8H.2 SFRSYM    DATA     BIT       T2CM
      000000F6H   SFRSYM    DATA     BYTE      AESIA2
      000000B8H.1 SFRSYM    DATA     BIT       RF
      000000B8H.3 SFRSYM    DATA     BIT       USBWU
      000000B8H.5 SFRSYM    DATA     BIT       WUIRQ
      000000C1H   SFRSYM    DATA     BYTE      CCEN
      000000D0H.7 SFRSYM    DATA     BIT       CY
      000000F3H   SFRSYM    DATA     BYTE      AESD
      000000E8H.1 SFRSYM    DATA     BIT       DECR
      00000090H   SFRSYM    DATA     BIT       RFCE
      000000CBH   SFRSYM    DATA     BYTE      CRCH
      00000081H   SFRSYM    DATA     BYTE      SP
      000000A0H.5 SFRSYM    DATA     BIT       SUSPEND
      000000A0H.7 SFRSYM    DATA     BIT       SWRST
      000000D0H.2 SFRSYM    DATA     BIT       OV
      000000CAH   SFRSYM    DATA     BYTE      CRCL
      000000C8H.7 SFRSYM    DATA     BIT       T2PS
      000000A0H.6 SFRSYM    DATA     BIT       WU
      000000F9H   SFRSYM    DATA     BYTE      FPCR
      00000080H   SFRSYM    DATA     BIT       P00
      000000BAH   SFRSYM    DATA     BYTE      S0RELH
      00000080H.1 SFRSYM    DATA     BIT       P01
      000000C0H.4 SFRSYM    DATA     BIT       USBF
      00000087H   SFRSYM    DATA     BYTE      PCON
      00000080H.3 SFRSYM    DATA     BIT       MCSN
LX51 LINKER/LOCATER V4.66.41.0                                                        02/08/2016  23:35:20  PAGE 81


      00000080H.2 SFRSYM    DATA     BIT       P02
      00000080H.3 SFRSYM    DATA     BIT       P03
      000000C0H.2 SFRSYM    DATA     BIT       SPIF
      000000F8H.2 SFRSYM    DATA     BIT       RDIS
      00000080H.4 SFRSYM    DATA     BIT       P04
      000000AAH   SFRSYM    DATA     BYTE      S0RELL
      00000080H.5 SFRSYM    DATA     BIT       P05
      00000089H   SFRSYM    DATA     BYTE      TMOD
      00000088H   SFRSYM    DATA     BYTE      TCON
      000000C2H   SFRSYM    DATA     WORD      CC1
      00000080H.3 SFRSYM    DATA     BIT       SCSN
      000000C4H   SFRSYM    DATA     WORD      CC2
      000000C6H   SFRSYM    DATA     WORD      CC3
      00000090H.2 SFRSYM    DATA     BIT       RFCKEN
      000000F8H   SFRSYM    DATA     BIT       WPEN
      000000F1H   SFRSYM    DATA     BYTE      AESKIN
      00000088H.1 SFRSYM    DATA     BIT       IE0
      000000F8H.4 SFRSYM    DATA     BIT       RDYN
      00000088H.3 SFRSYM    DATA     BIT       IE1
      000000A3H   SFRSYM    DATA     BYTE      CLKCTL
      000000F0H   SFRSYM    DATA     BYTE      B
      000000E9H   SFRSYM    DATA     BYTE      MD0
      000000EAH   SFRSYM    DATA     BYTE      MD1
      000000BDH   SFRSYM    DATA     BYTE      SSDATA
      000000EBH   SFRSYM    DATA     BYTE      MD2
      000000ECH   SFRSYM    DATA     BYTE      MD3
      000000EDH   SFRSYM    DATA     BYTE      MD4
      000000EEH   SFRSYM    DATA     BYTE      MD5
      000000E0H   SFRSYM    DATA     BYTE      ACC
      000000B5H   SFRSYM    DATA     BYTE      TICKDV
      000000A8H.4 SFRSYM    DATA     BIT       ES0
      000000A8H.1 SFRSYM    DATA     BIT       ET0
      000000A9H   SFRSYM    DATA     BYTE      IP0
      000000A8H.3 SFRSYM    DATA     BIT       ET1
      00000088H.5 SFRSYM    DATA     BIT       TF0
      000000B9H   SFRSYM    DATA     BYTE      IP1
      000000A8H.5 SFRSYM    DATA     BIT       ET2
      00000098H   SFRSYM    DATA     BIT       RI0
      00000088H.7 SFRSYM    DATA     BIT       TF1
      000000C0H   SFRSYM    DATA     BIT       RFSPIF
      000000C0H.6 SFRSYM    DATA     BIT       TF2
      000000A0H   SFRSYM    DATA     BYTE      USBCON
      0000008CH   SFRSYM    DATA     BYTE      TH0
      000000A8H   SFRSYM    DATA     BIT       EX0
      00000098H.1 SFRSYM    DATA     BIT       TI0
      00000088H   SFRSYM    DATA     BIT       IT0
      0000008DH   SFRSYM    DATA     BYTE      TH1
      000000A8H.2 SFRSYM    DATA     BIT       EX1
      00000088H.2 SFRSYM    DATA     BIT       IT1
      000000CDH   SFRSYM    DATA     BYTE      TH2
      000000BCH   SFRSYM    DATA     BYTE      SSCONF
      000000A0H   SFRSYM    DATA     BIT       IV0
      000000D0H   SFRSYM    DATA     BIT       P
      000000A0H.1 SFRSYM    DATA     BIT       IV1
      00000098H.7 SFRSYM    DATA     BIT       SM0
      0000008AH   SFRSYM    DATA     BYTE      TL0
      000000A0H.2 SFRSYM    DATA     BIT       IV2
      00000098H.6 SFRSYM    DATA     BIT       SM1
      0000008BH   SFRSYM    DATA     BYTE      TL1
      000000A0H.3 SFRSYM    DATA     BIT       IV3
      000000CCH   SFRSYM    DATA     BYTE      TL2
      000000A0H.4 SFRSYM    DATA     BIT       IV4
      000000A5H   SFRSYM    DATA     BYTE      WUCONF
      000000D0H.3 SFRSYM    DATA     BIT       RS0
      00000088H.4 SFRSYM    DATA     BIT       TR0
LX51 LINKER/LOCATER V4.66.41.0                                                        02/08/2016  23:35:20  PAGE 82


      000000D0H.4 SFRSYM    DATA     BIT       RS1
      00000088H.6 SFRSYM    DATA     BIT       TR1
      000000CAH   SFRSYM    DATA     WORD      CRC
      000000A6H   SFRSYM    DATA     BYTE      INTEXP
      000000FAH   SFRSYM    DATA     BYTE      FCR
      000000D9H   SFRSYM    DATA     BYTE      USBSLP
      00000083H   SFRSYM    DATA     BYTE      DPH
      000000C0H.1 SFRSYM    DATA     BIT       RFF
      000000C0H.3 SFRSYM    DATA     BIT       USBWUF
      00000094H   SFRSYM    DATA     BYTE      P0DIR
      00000082H   SFRSYM    DATA     BYTE      DPL
      00000099H   SFRSYM    DATA     BYTE      S0BUF
      00000095H   SFRSYM    DATA     BYTE      P0ALT
      000000B8H.7 SFRSYM    DATA     BIT       EXEN2
      000000BEH   SFRSYM    DATA     BYTE      SSSTAT
      000000A4H   SFRSYM    DATA     BYTE      PWRDWN
      00000098H   SFRSYM    DATA     BYTE      S0CON
      000000B1H   SFRSYM    DATA     BYTE      RSTRES
      000000C8H   SFRSYM    DATA     BYTE      T2CON
      00000092H   SFRSYM    DATA     BYTE      DPS
      000000B8H.4 SFRSYM    DATA     BIT       USB
      000000F8H.5 SFRSYM    DATA     BIT       WEN
      000000F8H   SFRSYM    DATA     BYTE      FSR
      000000B8H.2 SFRSYM    DATA     BIT       SPI
      000000F8H.1 SFRSYM    DATA     BIT       RDEND
      000000C9H   SFRSYM    DATA     BYTE      P0EXP
      0000008EH   SFRSYM    DATA     BYTE      CKCON
      000000E8H   SFRSYM    DATA     BYTE      AESCS
      000000F8H.3 SFRSYM    DATA     BIT       INFEN
      000000F8H.7 SFRSYM    DATA     BIT       MCDIS
      000000C0H.5 SFRSYM    DATA     BIT       WUF
      000000E5H   SFRSYM    DATA     BYTE      RFDAT
      000000EFH   SFRSYM    DATA     BYTE      ARCON
      000000D0H.5 SFRSYM    DATA     BIT       F0
      000000D0H.1 SFRSYM    DATA     BIT       F1
      000000F8H.6 SFRSYM    DATA     BIT       STP
      000000F2H   SFRSYM    DATA     BYTE      AESIV
      00000090H   SFRSYM    DATA     BYTE      RFCON
      000000D0H   SFRSYM    DATA     BYTE      PSW
      000000B2H   SFRSYM    DATA     BYTE      SMDAT
      000000ADH   SFRSYM    DATA     BYTE      REGXC
      00000098H.2 SFRSYM    DATA     BIT       RB80
      000000E6H   SFRSYM    DATA     BYTE      RFCTL
      000000D8H   SFRSYM    DATA     BYTE      WDCON
      000000C0H   SFRSYM    DATA     BYTE      IRCON
      00000090H.1 SFRSYM    DATA     BIT       RFCSN
      00000006H   SYMBOL    DATA     BYTE      i
      00000007H   SYMBOL    DATA     BYTE      wrap
      0200810AH   SYMBOL    XDATA    ---       ls5b

      ---         MODULE    ---      ---       ?C?FPADD
      0100006DH   PUBLIC    CODE     ---       ?C?FPADD
      01000069H   PUBLIC    CODE     ---       ?C?FPSUB

      ---         MODULE    ---      ---       ?C?FPMUL
      0100015EH   PUBLIC    CODE     ---       ?C?FPMUL

      ---         MODULE    ---      ---       ?C?FPDIV
      01000267H   PUBLIC    CODE     ---       ?C?FPDIV

      ---         MODULE    ---      ---       ?C?FCAST
      0100030EH   PUBLIC    CODE     ---       ?C?FCASTC
      01000309H   PUBLIC    CODE     ---       ?C?FCASTI
      01000304H   PUBLIC    CODE     ---       ?C?FCASTL

LX51 LINKER/LOCATER V4.66.41.0                                                        02/08/2016  23:35:20  PAGE 83


      ---         MODULE    ---      ---       ?C?CASTF
      01000342H   PUBLIC    CODE     ---       ?C?CASTF

      ---         MODULE    ---      ---       ?C?FPGETOPN
      01000379H   PUBLIC    CODE     ---       ?C?FPGETOPN2
      010003AEH   PUBLIC    CODE     ---       ?C?FPNANRESULT
      010003B8H   PUBLIC    CODE     ---       ?C?FPOVERFLOW
      01000390H   PUBLIC    CODE     ---       ?C?FPRESULT
      010003A4H   PUBLIC    CODE     ---       ?C?FPRESULT2
      010003B5H   PUBLIC    CODE     ---       ?C?FPUNDERFLOW

      ---         MODULE    ---      ---       ?C_INIT
      01000755H   PUBLIC    CODE     ---       ?C_START

      ---         MODULE    ---      ---       ?C?COPY
      01000493H   PUBLIC    CODE     ---       ?C?COPY

      ---         MODULE    ---      ---       ?C?CLDPTR
      010004B9H   PUBLIC    CODE     ---       ?C?CLDPTR

      ---         MODULE    ---      ---       ?C?CLDOPTR
      010004D2H   PUBLIC    CODE     ---       ?C?CLDOPTR

      ---         MODULE    ---      ---       ?C?CSTPTR
      010004FFH   PUBLIC    CODE     ---       ?C?CSTPTR

      ---         MODULE    ---      ---       ?C?CSTOPTR
      01000511H   PUBLIC    CODE     ---       ?C?CSTOPTR

      ---         MODULE    ---      ---       ?C?IMUL
      01000533H   PUBLIC    CODE     ---       ?C?IMUL

      ---         MODULE    ---      ---       ?C?UIDIV
      01000545H   PUBLIC    CODE     ---       ?C?UIDIV

      ---         MODULE    ---      ---       ?C?IILDX
      0100059AH   PUBLIC    CODE     ---       ?C?IILDX

      ---         MODULE    ---      ---       ?C?LNEG
      010005B0H   PUBLIC    CODE     ---       ?C?LNEG

      ---         MODULE    ---      ---       ?C?PSTPTR
      010005BEH   PUBLIC    CODE     ---       ?C?PSTPTR

      ---         MODULE    ---      ---       ?C?PLDOPTR
      0100060DH   PUBLIC    CODE     ---       ?C?PLDOPTR

      ---         MODULE    ---      ---       ?C?CCASE
      0100063DH   PUBLIC    CODE     ---       ?C?CCASE

      ---         MODULE    ---      ---       ?C?ICALL
      01000663H   PUBLIC    CODE     ---       ?C?ICALL
      01000667H   PUBLIC    CODE     ---       ?C?ICALL2

      ---         MODULE    ---      ---       ?C_XBP
      00000008H   PUBLIC    DATA     ---       ?C_XBP

      ---         MODULE    ---      ---       ?C?ADDXBP
      01000669H   PUBLIC    CODE     ---       ?C?ADDXBP

      ---         MODULE    ---      ---       ?C?XBPOFF
      0100068DH   PUBLIC    CODE     ---       ?C?XBPOFF

      ---         MODULE    ---      ---       ?C?MEMSET
      0100069AH   PUBLIC    CODE     ---       ?C?MEMSET
LX51 LINKER/LOCATER V4.66.41.0                                                        02/08/2016  23:35:20  PAGE 84



      ---         MODULE    ---      ---       ?C?PLDIDATA
      010006C6H   PUBLIC    CODE     ---       ?C?PLDIDATA

      ---         MODULE    ---      ---       ?C?PSTIDATA
      010006CFH   PUBLIC    CODE     ---       ?C?PSTIDATA

      ---         MODULE    ---      ---       ?C?PLDXDATA
      010006D8H   PUBLIC    CODE     ---       ?C?PLDXDATA

      ---         MODULE    ---      ---       ?C?PSTXDATA
      010006E1H   PUBLIC    CODE     ---       ?C?PSTXDATA

      ---         MODULE    ---      ---       ?C?PLDPDATA
      010006EAH   PUBLIC    CODE     ---       ?C?PLDPDATA

      ---         MODULE    ---      ---       ?C?PSTPDATA
      010006F3H   PUBLIC    CODE     ---       ?C?PSTPDATA

      ---         MODULE    ---      ---       ?C?PLDCODE
      010006FCH   PUBLIC    CODE     ---       ?C?PLDCODE

Program Size: data=13.0 xdata=727 const=193 code=9473
LX51 RUN COMPLETE.  0 WARNING(S),  0 ERROR(S)
